Archive member included because of file (symbol)

ym/mbed-drivers/source/mbed-drivers.a(retarget.cpp.o)
                              /usr/local/Cellar/arm-none-eabi-gcc/4.9-2015-q2-update/bin/../lib/gcc/arm-none-eabi/4.9.3/../../../../arm-none-eabi/lib/armv7e-m/crt0.o (__wrap_main)
ym/mbed-drivers/source/mbed-drivers.a(FilePath.cpp.o)
                              ym/mbed-drivers/source/mbed-drivers.a(retarget.cpp.o) (mbed::FilePath::FilePath(char const*))
ym/mbed-drivers/source/mbed-drivers.a(FileBase.cpp.o)
                              ym/mbed-drivers/source/mbed-drivers.a(FilePath.cpp.o) (mbed::FileBase::lookup(char const*, unsigned int))
ym/mbed-drivers/source/mbed-drivers.a(exit.c.o)
                              /usr/local/Cellar/arm-none-eabi-gcc/4.9-2015-q2-update/bin/../lib/gcc/arm-none-eabi/4.9.3/../../../../arm-none-eabi/lib/armv7e-m/crt0.o (exit)
ym/mbed-drivers/source/mbed-drivers.a(board.c.o)
                              ym/mbed-drivers/source/mbed-drivers.a(exit.c.o) (mbed_die)
ym/mbed-drivers/source/mbed-drivers.a(wait_api.c.o)
                              test/CMakeFiles/ds1820-mbedos-test-sense.dir/Users/andrewbrannan/converge/code/DS1820-mbedOS/test/sense.cpp.o (wait)
ym/mbed-drivers/source/mbed-drivers.a(error.c.o)
                              ym/mbed-drivers/source/mbed-drivers.a(retarget.cpp.o) (error)
ym/mbed-drivers/source/mbed-drivers.a(FileSystemLike.cpp.o)
                              ym/mbed-drivers/source/mbed-drivers.a(retarget.cpp.o) (mbed::FileSystemLike::opendir())
ym/mbed-drivers/source/mbed-drivers.a(gpio.c.o)
                              ym/mbed-drivers/source/mbed-drivers.a(board.c.o) (gpio_init_out)
source/ds1820-mbedos.a(DS1820.cpp.o)
                              test/CMakeFiles/ds1820-mbedos-test-sense.dir/Users/andrewbrannan/converge/code/DS1820-mbedOS/test/sense.cpp.o (DS1820::unassignedProbe(PinName))
source/ds1820-mbedos.a(LinkedList.cpp.o)
                              source/ds1820-mbedos.a(DS1820.cpp.o) (LinkedList<node>::LinkedList())
ym/minar/source/minar.a(minar.cpp.o)
                              ym/mbed-drivers/source/mbed-drivers.a(retarget.cpp.o) (minar::Scheduler::postCallback(mbed::util::FunctionPointerBind<void> const&))
ym/core-util/source/core-util.a(ExtendablePoolAllocator.cpp.o)
                              ym/minar/source/minar.a(minar.cpp.o) (mbed::util::ExtendablePoolAllocator::ExtendablePoolAllocator())
ym/core-util/source/core-util.a(PoolAllocator.cpp.o)
                              ym/core-util/source/core-util.a(ExtendablePoolAllocator.cpp.o) (mbed::util::PoolAllocator::alloc())
ym/core-util/source/core-util.a(core-util_mbed_os.c.o)
                              ym/minar/source/minar.a(minar.cpp.o) (core_util_runtime_error_internal)
ym/mbed-hal-ksdk-mcu/source/mbed-hal-ksdk-mcu.a(serial_api.c.o)
                              ym/mbed-drivers/source/mbed-drivers.a(retarget.cpp.o) (serial_init)
ym/mbed-hal-ksdk-mcu/source/mbed-hal-ksdk-mcu.a(fsl_clock_manager.c.o)
                              ym/mbed-hal-ksdk-mcu/source/mbed-hal-ksdk-mcu.a(serial_api.c.o) (g_simBaseAddr)
ym/mbed-hal-ksdk-mcu/source/mbed-hal-ksdk-mcu.a(gpio_api.c.o)
                              ym/mbed-drivers/source/mbed-drivers.a(gpio.c.o) (gpio_init)
ym/mbed-hal-ksdk-mcu/source/mbed-hal-ksdk-mcu.a(us_ticker.c.o)
                              ym/mbed-drivers/source/mbed-drivers.a(wait_api.c.o) (us_ticker_read)
ym/mbed-hal-ksdk-mcu/source/mbed-hal-ksdk-mcu.a(fsl_uart_hal.c.o)
                              ym/mbed-hal-ksdk-mcu/source/mbed-hal-ksdk-mcu.a(serial_api.c.o) (UART_HAL_Init)
ym/mbed-hal-ksdk-mcu/source/mbed-hal-ksdk-mcu.a(fsl_sim_hal.c.o)
                              ym/mbed-hal-ksdk-mcu/source/mbed-hal-ksdk-mcu.a(fsl_clock_manager.c.o) (CLOCK_HAL_SetSource)
ym/mbed-hal-ksdk-mcu/source/mbed-hal-ksdk-mcu.a(fsl_gpio_hal.c.o)
                              ym/mbed-hal-ksdk-mcu/source/mbed-hal-ksdk-mcu.a(gpio_api.c.o) (GPIO_HAL_SetPinDir)
ym/mbed-hal-ksdk-mcu/source/mbed-hal-ksdk-mcu.a(pinmap.c.o)
                              ym/mbed-hal-ksdk-mcu/source/mbed-hal-ksdk-mcu.a(gpio_api.c.o) (pin_function)
ym/mbed-hal-ksdk-mcu/source/mbed-hal-ksdk-mcu.a(fsl_mcg_hal.c.o)
                              ym/mbed-hal-ksdk-mcu/source/mbed-hal-ksdk-mcu.a(fsl_clock_manager.c.o) (CLOCK_HAL_GetFllRefClk)
ym/minar-platform-mbed/source/minar-platform-mbed.a(mbed_platform.cpp.o)
                              ym/minar/source/minar.a(minar.cpp.o) (minar::platform::init())
ym/mbed-hal-k64f/source/mbed-hal-k64f.a(startup_MK64F12.S.obj)
                              (Reset_Handler)
ym/mbed-hal-k64f/source/mbed-hal-k64f.a(fsl_clock_K64F12.c.o)
                              ym/mbed-hal-ksdk-mcu/source/mbed-hal-ksdk-mcu.a(serial_api.c.o) (CLOCK_SYS_GetUartFreq)
ym/mbed-hal-k64f/source/mbed-hal-k64f.a(fsl_sim_hal_K64F12.c.o)
                              ym/mbed-hal-ksdk-mcu/source/mbed-hal-ksdk-mcu.a(gpio_api.c.o) (SIM_HAL_EnablePortClock)
ym/mbed-hal-frdm-k64f/source/mbed-hal-frdm-k64f.a(init_api.c.o)
                              ym/mbed-drivers/source/mbed-drivers.a(retarget.cpp.o) (mbed_hal_init)
ym/mbed-hal-frdm-k64f/source/mbed-hal-frdm-k64f.a(PeripheralPins.c.o)
                              ym/mbed-hal-ksdk-mcu/source/mbed-hal-ksdk-mcu.a(serial_api.c.o) (PinMap_UART_RX)
ym/mbed-drivers/source/mbed-drivers.a(pinmap_common.c.o)
                              ym/mbed-hal-ksdk-mcu/source/mbed-hal-ksdk-mcu.a(serial_api.c.o) (pinmap_pinout)
ym/mbed-drivers/source/mbed-drivers.a(us_ticker_api.c.o)
                              ym/mbed-hal-ksdk-mcu/source/mbed-hal-ksdk-mcu.a(us_ticker.c.o) (us_ticker_irq_handler)
ym/mbed-drivers/source/mbed-drivers.a(ticker_api.c.o)
                              ym/mbed-drivers/source/mbed-drivers.a(us_ticker_api.c.o) (ticker_irq_handler)
ym/mbed-hal-ksdk-mcu/source/mbed-hal-ksdk-mcu.a(sleep.c.o)
                              ym/minar-platform-mbed/source/minar-platform-mbed.a(mbed_platform.cpp.o) (mbed_enter_sleep)
ym/mbed-hal-ksdk-mcu/source/mbed-hal-ksdk-mcu.a(fsl_smc_hal.c.o)
                              ym/mbed-hal-ksdk-mcu/source/mbed-hal-ksdk-mcu.a(sleep.c.o) (SMC_HAL_SetProtection)
ym/mbed-hal-ksdk-mcu/source/mbed-hal-ksdk-mcu.a(lp_ticker.c.o)
                              ym/minar-platform-mbed/source/minar-platform-mbed.a(mbed_platform.cpp.o) (lp_ticker_init)
ym/mbed-hal-ksdk-mcu/source/mbed-hal-ksdk-mcu.a(fsl_rtc_hal.c.o)
                              ym/mbed-hal-ksdk-mcu/source/mbed-hal-ksdk-mcu.a(lp_ticker.c.o) (RTC_HAL_Enable)
ym/ualloc/source/ualloc.a(ualloc.c.o)
                              ym/minar/source/minar.a(minar.cpp.o) (mbed_ualloc)
ym/dlmalloc/source/dlmalloc.a(dlmalloc.c.o)
                              ym/ualloc/source/ualloc.a(ualloc.c.o) (dlmalloc)
ym/cmsis-core-k64f/source/cmsis-core-k64f.a(system_MK64F12.c.o)
                              ym/mbed-hal-k64f/source/mbed-hal-k64f.a(startup_MK64F12.S.obj) (SystemInit)
ym/uvisor-lib/source/uvisor-lib.a(uvisor.o)
                              ym/mbed-hal-k64f/source/mbed-hal-k64f.a(startup_MK64F12.S.obj) (uvisor_init)
ym/uvisor-lib/source/uvisor-lib.a(interrupts.cpp.o)
                              ym/mbed-hal-ksdk-mcu/source/mbed-hal-ksdk-mcu.a(serial_api.c.o) (vIRQ_SetVectorX)
/usr/local/Cellar/arm-none-eabi-gcc/4.9-2015-q2-update/bin/../lib/gcc/arm-none-eabi/4.9.3/../../../../arm-none-eabi/lib/armv7e-m/libstdc++_nano.a(atexit_arm.o)
                              source/ds1820-mbedos.a(DS1820.cpp.o) (__aeabi_atexit)
/usr/local/Cellar/arm-none-eabi-gcc/4.9-2015-q2-update/bin/../lib/gcc/arm-none-eabi/4.9.3/../../../../arm-none-eabi/lib/armv7e-m/libstdc++_nano.a(del_op.o)
                              ym/mbed-drivers/source/mbed-drivers.a(retarget.cpp.o) (operator delete(void*))
/usr/local/Cellar/arm-none-eabi-gcc/4.9-2015-q2-update/bin/../lib/gcc/arm-none-eabi/4.9.3/../../../../arm-none-eabi/lib/armv7e-m/libstdc++_nano.a(del_opv.o)
                              source/ds1820-mbedos.a(LinkedList.cpp.o) (operator delete[](void*))
/usr/local/Cellar/arm-none-eabi-gcc/4.9-2015-q2-update/bin/../lib/gcc/arm-none-eabi/4.9.3/../../../../arm-none-eabi/lib/armv7e-m/libstdc++_nano.a(new_op.o)
                              test/CMakeFiles/ds1820-mbedos-test-sense.dir/Users/andrewbrannan/converge/code/DS1820-mbedOS/test/sense.cpp.o (operator new(unsigned int))
/usr/local/Cellar/arm-none-eabi-gcc/4.9-2015-q2-update/bin/../lib/gcc/arm-none-eabi/4.9.3/../../../../arm-none-eabi/lib/armv7e-m/libstdc++_nano.a(new_opv.o)
                              source/ds1820-mbedos.a(LinkedList.cpp.o) (operator new[](unsigned int))
/usr/local/Cellar/arm-none-eabi-gcc/4.9-2015-q2-update/bin/../lib/gcc/arm-none-eabi/4.9.3/../../../../arm-none-eabi/lib/armv7e-m/libstdc++_nano.a(new_handler.o)
                              /usr/local/Cellar/arm-none-eabi-gcc/4.9-2015-q2-update/bin/../lib/gcc/arm-none-eabi/4.9.3/../../../../arm-none-eabi/lib/armv7e-m/libstdc++_nano.a(new_op.o) (std::get_new_handler())
/usr/local/Cellar/arm-none-eabi-gcc/4.9-2015-q2-update/bin/../lib/gcc/arm-none-eabi/4.9.3/armv7e-m/libgcc.a(_arm_addsubdf3.o)
                              source/ds1820-mbedos.a(DS1820.cpp.o) (__aeabi_dsub)
/usr/local/Cellar/arm-none-eabi-gcc/4.9-2015-q2-update/bin/../lib/gcc/arm-none-eabi/4.9.3/armv7e-m/libgcc.a(_arm_truncdfsf2.o)
                              source/ds1820-mbedos.a(DS1820.cpp.o) (__aeabi_d2f)
/usr/local/Cellar/arm-none-eabi-gcc/4.9-2015-q2-update/bin/../lib/gcc/arm-none-eabi/4.9.3/armv7e-m/libgcc.a(_arm_addsubsf3.o)
                              source/ds1820-mbedos.a(DS1820.cpp.o) (__aeabi_fsub)
/usr/local/Cellar/arm-none-eabi-gcc/4.9-2015-q2-update/bin/../lib/gcc/arm-none-eabi/4.9.3/armv7e-m/libgcc.a(_arm_muldivsf3.o)
                              ym/mbed-drivers/source/mbed-drivers.a(wait_api.c.o) (__aeabi_fmul)
/usr/local/Cellar/arm-none-eabi-gcc/4.9-2015-q2-update/bin/../lib/gcc/arm-none-eabi/4.9.3/armv7e-m/libgcc.a(_arm_fixsfsi.o)
                              ym/mbed-drivers/source/mbed-drivers.a(wait_api.c.o) (__aeabi_f2iz)
/usr/local/Cellar/arm-none-eabi-gcc/4.9-2015-q2-update/bin/../lib/gcc/arm-none-eabi/4.9.3/armv7e-m/libgcc.a(_aeabi_uldivmod.o)
                              ym/minar/source/minar.a(minar.cpp.o) (__aeabi_uldivmod)
/usr/local/Cellar/arm-none-eabi-gcc/4.9-2015-q2-update/bin/../lib/gcc/arm-none-eabi/4.9.3/armv7e-m/libgcc.a(bpabi.o)
                              /usr/local/Cellar/arm-none-eabi-gcc/4.9-2015-q2-update/bin/../lib/gcc/arm-none-eabi/4.9.3/armv7e-m/libgcc.a(_aeabi_uldivmod.o) (__gnu_uldivmod_helper)
/usr/local/Cellar/arm-none-eabi-gcc/4.9-2015-q2-update/bin/../lib/gcc/arm-none-eabi/4.9.3/armv7e-m/libgcc.a(_dvmd_tls.o)
                              /usr/local/Cellar/arm-none-eabi-gcc/4.9-2015-q2-update/bin/../lib/gcc/arm-none-eabi/4.9.3/armv7e-m/libgcc.a(_aeabi_uldivmod.o) (__aeabi_ldiv0)
/usr/local/Cellar/arm-none-eabi-gcc/4.9-2015-q2-update/bin/../lib/gcc/arm-none-eabi/4.9.3/armv7e-m/libgcc.a(_divdi3.o)
                              /usr/local/Cellar/arm-none-eabi-gcc/4.9-2015-q2-update/bin/../lib/gcc/arm-none-eabi/4.9.3/armv7e-m/libgcc.a(bpabi.o) (__divdi3)
/usr/local/Cellar/arm-none-eabi-gcc/4.9-2015-q2-update/bin/../lib/gcc/arm-none-eabi/4.9.3/armv7e-m/libgcc.a(_udivdi3.o)
                              /usr/local/Cellar/arm-none-eabi-gcc/4.9-2015-q2-update/bin/../lib/gcc/arm-none-eabi/4.9.3/armv7e-m/libgcc.a(bpabi.o) (__udivdi3)
/usr/local/Cellar/arm-none-eabi-gcc/4.9-2015-q2-update/bin/../lib/gcc/arm-none-eabi/4.9.3/../../../../arm-none-eabi/lib/armv7e-m/libm.a(lib_a-s_floor.o)
                              source/ds1820-mbedos.a(DS1820.cpp.o) (floor)
/usr/local/Cellar/arm-none-eabi-gcc/4.9-2015-q2-update/bin/../lib/gcc/arm-none-eabi/4.9.3/../../../../arm-none-eabi/lib/armv7e-m/libm.a(lib_a-s_round.o)
                              source/ds1820-mbedos.a(DS1820.cpp.o) (round)
/usr/local/Cellar/arm-none-eabi-gcc/4.9-2015-q2-update/bin/../lib/gcc/arm-none-eabi/4.9.3/../../../../arm-none-eabi/lib/armv7e-m/libc_nano.a(lib_a-abort.o)
                              ym/dlmalloc/source/dlmalloc.a(dlmalloc.c.o) (abort)
/usr/local/Cellar/arm-none-eabi-gcc/4.9-2015-q2-update/bin/../lib/gcc/arm-none-eabi/4.9.3/../../../../arm-none-eabi/lib/armv7e-m/libc_nano.a(lib_a-cxa_atexit.o)
                              /usr/local/Cellar/arm-none-eabi-gcc/4.9-2015-q2-update/bin/../lib/gcc/arm-none-eabi/4.9.3/../../../../arm-none-eabi/lib/armv7e-m/libstdc++_nano.a(atexit_arm.o) (__cxa_atexit)
/usr/local/Cellar/arm-none-eabi-gcc/4.9-2015-q2-update/bin/../lib/gcc/arm-none-eabi/4.9.3/../../../../arm-none-eabi/lib/armv7e-m/libc_nano.a(lib_a-errno.o)
                              ym/mbed-drivers/source/mbed-drivers.a(retarget.cpp.o) (__errno)
/usr/local/Cellar/arm-none-eabi-gcc/4.9-2015-q2-update/bin/../lib/gcc/arm-none-eabi/4.9.3/../../../../arm-none-eabi/lib/armv7e-m/libc_nano.a(lib_a-fflush.o)
                              ym/mbed-drivers/source/mbed-drivers.a(exit.c.o) (fflush)
/usr/local/Cellar/arm-none-eabi-gcc/4.9-2015-q2-update/bin/../lib/gcc/arm-none-eabi/4.9.3/../../../../arm-none-eabi/lib/armv7e-m/libc_nano.a(lib_a-findfp.o)
                              /usr/local/Cellar/arm-none-eabi-gcc/4.9-2015-q2-update/bin/../lib/gcc/arm-none-eabi/4.9.3/../../../../arm-none-eabi/lib/armv7e-m/libc_nano.a(lib_a-fflush.o) (__sinit)
/usr/local/Cellar/arm-none-eabi-gcc/4.9-2015-q2-update/bin/../lib/gcc/arm-none-eabi/4.9.3/../../../../arm-none-eabi/lib/armv7e-m/libc_nano.a(lib_a-fprintf.o)
                              ym/core-util/source/core-util.a(core-util_mbed_os.c.o) (fprintf)
/usr/local/Cellar/arm-none-eabi-gcc/4.9-2015-q2-update/bin/../lib/gcc/arm-none-eabi/4.9.3/../../../../arm-none-eabi/lib/armv7e-m/libc_nano.a(lib_a-fputs.o)
                              ym/core-util/source/core-util.a(core-util_mbed_os.c.o) (fputs)
/usr/local/Cellar/arm-none-eabi-gcc/4.9-2015-q2-update/bin/../lib/gcc/arm-none-eabi/4.9.3/../../../../arm-none-eabi/lib/armv7e-m/libc_nano.a(lib_a-fwalk.o)
                              /usr/local/Cellar/arm-none-eabi-gcc/4.9-2015-q2-update/bin/../lib/gcc/arm-none-eabi/4.9.3/../../../../arm-none-eabi/lib/armv7e-m/libc_nano.a(lib_a-findfp.o) (_fwalk)
/usr/local/Cellar/arm-none-eabi-gcc/4.9-2015-q2-update/bin/../lib/gcc/arm-none-eabi/4.9.3/../../../../arm-none-eabi/lib/armv7e-m/libc_nano.a(lib_a-impure.o)
                              /usr/local/Cellar/arm-none-eabi-gcc/4.9-2015-q2-update/bin/../lib/gcc/arm-none-eabi/4.9.3/../../../../arm-none-eabi/lib/armv7e-m/libc_nano.a(lib_a-fflush.o) (_global_impure_ptr)
/usr/local/Cellar/arm-none-eabi-gcc/4.9-2015-q2-update/bin/../lib/gcc/arm-none-eabi/4.9.3/../../../../arm-none-eabi/lib/armv7e-m/libc_nano.a(lib_a-init.o)
                              /usr/local/Cellar/arm-none-eabi-gcc/4.9-2015-q2-update/bin/../lib/gcc/arm-none-eabi/4.9.3/../../../../arm-none-eabi/lib/armv7e-m/crt0.o (__libc_init_array)
/usr/local/Cellar/arm-none-eabi-gcc/4.9-2015-q2-update/bin/../lib/gcc/arm-none-eabi/4.9.3/../../../../arm-none-eabi/lib/armv7e-m/libc_nano.a(lib_a-malloc.o)
                              /usr/local/Cellar/arm-none-eabi-gcc/4.9-2015-q2-update/bin/../lib/gcc/arm-none-eabi/4.9.3/../../../../arm-none-eabi/lib/armv7e-m/libstdc++_nano.a(new_op.o) (malloc)
/usr/local/Cellar/arm-none-eabi-gcc/4.9-2015-q2-update/bin/../lib/gcc/arm-none-eabi/4.9.3/../../../../arm-none-eabi/lib/armv7e-m/libc_nano.a(lib_a-memcpy.o)
                              ym/dlmalloc/source/dlmalloc.a(dlmalloc.c.o) (memcpy)
/usr/local/Cellar/arm-none-eabi-gcc/4.9-2015-q2-update/bin/../lib/gcc/arm-none-eabi/4.9.3/../../../../arm-none-eabi/lib/armv7e-m/libc_nano.a(lib_a-memset.o)
                              /usr/local/Cellar/arm-none-eabi-gcc/4.9-2015-q2-update/bin/../lib/gcc/arm-none-eabi/4.9.3/../../../../arm-none-eabi/lib/armv7e-m/crt0.o (memset)
/usr/local/Cellar/arm-none-eabi-gcc/4.9-2015-q2-update/bin/../lib/gcc/arm-none-eabi/4.9.3/../../../../arm-none-eabi/lib/armv7e-m/libc_nano.a(lib_a-nano-vfprintf.o)
                              /usr/local/Cellar/arm-none-eabi-gcc/4.9-2015-q2-update/bin/../lib/gcc/arm-none-eabi/4.9.3/../../../../arm-none-eabi/lib/armv7e-m/libc_nano.a(lib_a-fprintf.o) (_vfprintf_r)
/usr/local/Cellar/arm-none-eabi-gcc/4.9-2015-q2-update/bin/../lib/gcc/arm-none-eabi/4.9.3/../../../../arm-none-eabi/lib/armv7e-m/libc_nano.a(lib_a-nano-vfprintf_i.o)
                              /usr/local/Cellar/arm-none-eabi-gcc/4.9-2015-q2-update/bin/../lib/gcc/arm-none-eabi/4.9.3/../../../../arm-none-eabi/lib/armv7e-m/libc_nano.a(lib_a-nano-vfprintf.o) (_printf_i)
/usr/local/Cellar/arm-none-eabi-gcc/4.9-2015-q2-update/bin/../lib/gcc/arm-none-eabi/4.9.3/../../../../arm-none-eabi/lib/armv7e-m/libc_nano.a(lib_a-printf.o)
                              test/CMakeFiles/ds1820-mbedos-test-sense.dir/Users/andrewbrannan/converge/code/DS1820-mbedOS/test/sense.cpp.o (printf)
/usr/local/Cellar/arm-none-eabi-gcc/4.9-2015-q2-update/bin/../lib/gcc/arm-none-eabi/4.9.3/../../../../arm-none-eabi/lib/armv7e-m/libc_nano.a(lib_a-puts.o)
                              test/CMakeFiles/ds1820-mbedos-test-sense.dir/Users/andrewbrannan/converge/code/DS1820-mbedOS/test/sense.cpp.o (puts)
/usr/local/Cellar/arm-none-eabi-gcc/4.9-2015-q2-update/bin/../lib/gcc/arm-none-eabi/4.9.3/../../../../arm-none-eabi/lib/armv7e-m/libc_nano.a(lib_a-signal.o)
                              /usr/local/Cellar/arm-none-eabi-gcc/4.9-2015-q2-update/bin/../lib/gcc/arm-none-eabi/4.9.3/../../../../arm-none-eabi/lib/armv7e-m/libc_nano.a(lib_a-abort.o) (raise)
/usr/local/Cellar/arm-none-eabi-gcc/4.9-2015-q2-update/bin/../lib/gcc/arm-none-eabi/4.9.3/../../../../arm-none-eabi/lib/armv7e-m/libc_nano.a(lib_a-signalr.o)
                              /usr/local/Cellar/arm-none-eabi-gcc/4.9-2015-q2-update/bin/../lib/gcc/arm-none-eabi/4.9.3/../../../../arm-none-eabi/lib/armv7e-m/libc_nano.a(lib_a-signal.o) (_kill_r)
/usr/local/Cellar/arm-none-eabi-gcc/4.9-2015-q2-update/bin/../lib/gcc/arm-none-eabi/4.9.3/../../../../arm-none-eabi/lib/armv7e-m/libc_nano.a(lib_a-sscanf.o)
                              ym/mbed-drivers/source/mbed-drivers.a(retarget.cpp.o) (sscanf)
/usr/local/Cellar/arm-none-eabi-gcc/4.9-2015-q2-update/bin/../lib/gcc/arm-none-eabi/4.9.3/../../../../arm-none-eabi/lib/armv7e-m/libc_nano.a(lib_a-stdio.o)
                              /usr/local/Cellar/arm-none-eabi-gcc/4.9-2015-q2-update/bin/../lib/gcc/arm-none-eabi/4.9.3/../../../../arm-none-eabi/lib/armv7e-m/libc_nano.a(lib_a-findfp.o) (__sread)
/usr/local/Cellar/arm-none-eabi-gcc/4.9-2015-q2-update/bin/../lib/gcc/arm-none-eabi/4.9.3/../../../../arm-none-eabi/lib/armv7e-m/libc_nano.a(lib_a-strcmp.o)
                              ym/mbed-drivers/source/mbed-drivers.a(retarget.cpp.o) (strcmp)
/usr/local/Cellar/arm-none-eabi-gcc/4.9-2015-q2-update/bin/../lib/gcc/arm-none-eabi/4.9.3/../../../../arm-none-eabi/lib/armv7e-m/libc_nano.a(lib_a-strlen.o)
                              ym/mbed-drivers/source/mbed-drivers.a(FileBase.cpp.o) (strlen)
/usr/local/Cellar/arm-none-eabi-gcc/4.9-2015-q2-update/bin/../lib/gcc/arm-none-eabi/4.9.3/../../../../arm-none-eabi/lib/armv7e-m/libc_nano.a(lib_a-strncmp.o)
                              ym/mbed-drivers/source/mbed-drivers.a(FileBase.cpp.o) (strncmp)
/usr/local/Cellar/arm-none-eabi-gcc/4.9-2015-q2-update/bin/../lib/gcc/arm-none-eabi/4.9.3/../../../../arm-none-eabi/lib/armv7e-m/libc_nano.a(lib_a-strncpy.o)
                              ym/mbed-drivers/source/mbed-drivers.a(FileSystemLike.cpp.o) (strncpy)
/usr/local/Cellar/arm-none-eabi-gcc/4.9-2015-q2-update/bin/../lib/gcc/arm-none-eabi/4.9.3/../../../../arm-none-eabi/lib/armv7e-m/libc_nano.a(lib_a-wbuf.o)
                              /usr/local/Cellar/arm-none-eabi-gcc/4.9-2015-q2-update/bin/../lib/gcc/arm-none-eabi/4.9.3/../../../../arm-none-eabi/lib/armv7e-m/libc_nano.a(lib_a-fputs.o) (__swbuf_r)
/usr/local/Cellar/arm-none-eabi-gcc/4.9-2015-q2-update/bin/../lib/gcc/arm-none-eabi/4.9.3/../../../../arm-none-eabi/lib/armv7e-m/libc_nano.a(lib_a-writer.o)
                              /usr/local/Cellar/arm-none-eabi-gcc/4.9-2015-q2-update/bin/../lib/gcc/arm-none-eabi/4.9.3/../../../../arm-none-eabi/lib/armv7e-m/libc_nano.a(lib_a-stdio.o) (_write_r)
/usr/local/Cellar/arm-none-eabi-gcc/4.9-2015-q2-update/bin/../lib/gcc/arm-none-eabi/4.9.3/../../../../arm-none-eabi/lib/armv7e-m/libc_nano.a(lib_a-wsetup.o)
                              /usr/local/Cellar/arm-none-eabi-gcc/4.9-2015-q2-update/bin/../lib/gcc/arm-none-eabi/4.9.3/../../../../arm-none-eabi/lib/armv7e-m/libc_nano.a(lib_a-fputs.o) (__swsetup_r)
/usr/local/Cellar/arm-none-eabi-gcc/4.9-2015-q2-update/bin/../lib/gcc/arm-none-eabi/4.9.3/../../../../arm-none-eabi/lib/armv7e-m/libc_nano.a(lib_a-closer.o)
                              /usr/local/Cellar/arm-none-eabi-gcc/4.9-2015-q2-update/bin/../lib/gcc/arm-none-eabi/4.9.3/../../../../arm-none-eabi/lib/armv7e-m/libc_nano.a(lib_a-stdio.o) (_close_r)
/usr/local/Cellar/arm-none-eabi-gcc/4.9-2015-q2-update/bin/../lib/gcc/arm-none-eabi/4.9.3/../../../../arm-none-eabi/lib/armv7e-m/libc_nano.a(lib_a-fvwrite.o)
                              /usr/local/Cellar/arm-none-eabi-gcc/4.9-2015-q2-update/bin/../lib/gcc/arm-none-eabi/4.9.3/../../../../arm-none-eabi/lib/armv7e-m/libc_nano.a(lib_a-nano-vfprintf.o) (__sfvwrite_r)
/usr/local/Cellar/arm-none-eabi-gcc/4.9-2015-q2-update/bin/../lib/gcc/arm-none-eabi/4.9.3/../../../../arm-none-eabi/lib/armv7e-m/libc_nano.a(lib_a-lseekr.o)
                              /usr/local/Cellar/arm-none-eabi-gcc/4.9-2015-q2-update/bin/../lib/gcc/arm-none-eabi/4.9.3/../../../../arm-none-eabi/lib/armv7e-m/libc_nano.a(lib_a-stdio.o) (_lseek_r)
/usr/local/Cellar/arm-none-eabi-gcc/4.9-2015-q2-update/bin/../lib/gcc/arm-none-eabi/4.9.3/../../../../arm-none-eabi/lib/armv7e-m/libc_nano.a(lib_a-makebuf.o)
                              /usr/local/Cellar/arm-none-eabi-gcc/4.9-2015-q2-update/bin/../lib/gcc/arm-none-eabi/4.9.3/../../../../arm-none-eabi/lib/armv7e-m/libc_nano.a(lib_a-wsetup.o) (__smakebuf_r)
/usr/local/Cellar/arm-none-eabi-gcc/4.9-2015-q2-update/bin/../lib/gcc/arm-none-eabi/4.9.3/../../../../arm-none-eabi/lib/armv7e-m/libc_nano.a(lib_a-memchr.o)
                              /usr/local/Cellar/arm-none-eabi-gcc/4.9-2015-q2-update/bin/../lib/gcc/arm-none-eabi/4.9.3/../../../../arm-none-eabi/lib/armv7e-m/libc_nano.a(lib_a-nano-vfprintf.o) (memchr)
/usr/local/Cellar/arm-none-eabi-gcc/4.9-2015-q2-update/bin/../lib/gcc/arm-none-eabi/4.9.3/../../../../arm-none-eabi/lib/armv7e-m/libc_nano.a(lib_a-memmove.o)
                              /usr/local/Cellar/arm-none-eabi-gcc/4.9-2015-q2-update/bin/../lib/gcc/arm-none-eabi/4.9.3/../../../../arm-none-eabi/lib/armv7e-m/libc_nano.a(lib_a-fvwrite.o) (memmove)
/usr/local/Cellar/arm-none-eabi-gcc/4.9-2015-q2-update/bin/../lib/gcc/arm-none-eabi/4.9.3/../../../../arm-none-eabi/lib/armv7e-m/libc_nano.a(lib_a-nano-svfscanf.o)
                              /usr/local/Cellar/arm-none-eabi-gcc/4.9-2015-q2-update/bin/../lib/gcc/arm-none-eabi/4.9.3/../../../../arm-none-eabi/lib/armv7e-m/libc_nano.a(lib_a-sscanf.o) (__ssvfscanf_r)
/usr/local/Cellar/arm-none-eabi-gcc/4.9-2015-q2-update/bin/../lib/gcc/arm-none-eabi/4.9.3/../../../../arm-none-eabi/lib/armv7e-m/libc_nano.a(lib_a-nano-vfscanf_i.o)
                              /usr/local/Cellar/arm-none-eabi-gcc/4.9-2015-q2-update/bin/../lib/gcc/arm-none-eabi/4.9.3/../../../../arm-none-eabi/lib/armv7e-m/libc_nano.a(lib_a-nano-svfscanf.o) (_scanf_chars)
/usr/local/Cellar/arm-none-eabi-gcc/4.9-2015-q2-update/bin/../lib/gcc/arm-none-eabi/4.9.3/../../../../arm-none-eabi/lib/armv7e-m/libc_nano.a(lib_a-readr.o)
                              /usr/local/Cellar/arm-none-eabi-gcc/4.9-2015-q2-update/bin/../lib/gcc/arm-none-eabi/4.9.3/../../../../arm-none-eabi/lib/armv7e-m/libc_nano.a(lib_a-stdio.o) (_read_r)
/usr/local/Cellar/arm-none-eabi-gcc/4.9-2015-q2-update/bin/../lib/gcc/arm-none-eabi/4.9.3/../../../../arm-none-eabi/lib/armv7e-m/libc_nano.a(lib_a-reent.o)
                              /usr/local/Cellar/arm-none-eabi-gcc/4.9-2015-q2-update/bin/../lib/gcc/arm-none-eabi/4.9.3/../../../../arm-none-eabi/lib/armv7e-m/libc_nano.a(lib_a-signalr.o) (errno)
/usr/local/Cellar/arm-none-eabi-gcc/4.9-2015-q2-update/bin/../lib/gcc/arm-none-eabi/4.9.3/../../../../arm-none-eabi/lib/armv7e-m/libc_nano.a(lib_a-sccl.o)
                              /usr/local/Cellar/arm-none-eabi-gcc/4.9-2015-q2-update/bin/../lib/gcc/arm-none-eabi/4.9.3/../../../../arm-none-eabi/lib/armv7e-m/libc_nano.a(lib_a-nano-svfscanf.o) (__sccl)
/usr/local/Cellar/arm-none-eabi-gcc/4.9-2015-q2-update/bin/../lib/gcc/arm-none-eabi/4.9.3/../../../../arm-none-eabi/lib/armv7e-m/libc_nano.a(lib_a-strtol.o)
                              /usr/local/Cellar/arm-none-eabi-gcc/4.9-2015-q2-update/bin/../lib/gcc/arm-none-eabi/4.9.3/../../../../arm-none-eabi/lib/armv7e-m/libc_nano.a(lib_a-nano-vfscanf_i.o) (_strtol_r)
/usr/local/Cellar/arm-none-eabi-gcc/4.9-2015-q2-update/bin/../lib/gcc/arm-none-eabi/4.9.3/../../../../arm-none-eabi/lib/armv7e-m/libc_nano.a(lib_a-strtoul.o)
                              /usr/local/Cellar/arm-none-eabi-gcc/4.9-2015-q2-update/bin/../lib/gcc/arm-none-eabi/4.9.3/../../../../arm-none-eabi/lib/armv7e-m/libc_nano.a(lib_a-nano-vfscanf_i.o) (_strtoul_r)
/usr/local/Cellar/arm-none-eabi-gcc/4.9-2015-q2-update/bin/../lib/gcc/arm-none-eabi/4.9.3/../../../../arm-none-eabi/lib/armv7e-m/libc_nano.a(lib_a-ungetc.o)
                              /usr/local/Cellar/arm-none-eabi-gcc/4.9-2015-q2-update/bin/../lib/gcc/arm-none-eabi/4.9.3/../../../../arm-none-eabi/lib/armv7e-m/libc_nano.a(lib_a-nano-svfscanf.o) (__submore)
/usr/local/Cellar/arm-none-eabi-gcc/4.9-2015-q2-update/bin/../lib/gcc/arm-none-eabi/4.9.3/../../../../arm-none-eabi/lib/armv7e-m/libc_nano.a(lib_a-ctype_.o)
                              /usr/local/Cellar/arm-none-eabi-gcc/4.9-2015-q2-update/bin/../lib/gcc/arm-none-eabi/4.9.3/../../../../arm-none-eabi/lib/armv7e-m/libc_nano.a(lib_a-nano-svfscanf.o) (__ctype_ptr__)
/usr/local/Cellar/arm-none-eabi-gcc/4.9-2015-q2-update/bin/../lib/gcc/arm-none-eabi/4.9.3/../../../../arm-none-eabi/lib/armv7e-m/libc_nano.a(lib_a-fstatr.o)
                              /usr/local/Cellar/arm-none-eabi-gcc/4.9-2015-q2-update/bin/../lib/gcc/arm-none-eabi/4.9.3/../../../../arm-none-eabi/lib/armv7e-m/libc_nano.a(lib_a-makebuf.o) (_fstat_r)
/usr/local/Cellar/arm-none-eabi-gcc/4.9-2015-q2-update/bin/../lib/gcc/arm-none-eabi/4.9.3/../../../../arm-none-eabi/lib/armv7e-m/libc_nano.a(lib_a-isattyr.o)
                              /usr/local/Cellar/arm-none-eabi-gcc/4.9-2015-q2-update/bin/../lib/gcc/arm-none-eabi/4.9.3/../../../../arm-none-eabi/lib/armv7e-m/libc_nano.a(lib_a-makebuf.o) (_isatty_r)
/usr/local/Cellar/arm-none-eabi-gcc/4.9-2015-q2-update/bin/../lib/gcc/arm-none-eabi/4.9.3/armv7e-m/libgcc.a(_arm_cmpdf2.o)
                              /usr/local/Cellar/arm-none-eabi-gcc/4.9-2015-q2-update/bin/../lib/gcc/arm-none-eabi/4.9.3/../../../../arm-none-eabi/lib/armv7e-m/libm.a(lib_a-s_floor.o) (__aeabi_dcmpgt)
ym/core-util/source/core-util.a(sbrk.cpp.o)
                              ym/dlmalloc/source/dlmalloc.a(dlmalloc.c.o) (mbed_sbrk)
ym/ualloc/source/ualloc.a(malloc.c.o)
                              /usr/local/Cellar/arm-none-eabi-gcc/4.9-2015-q2-update/bin/../lib/gcc/arm-none-eabi/4.9.3/../../../../arm-none-eabi/lib/armv7e-m/libc_nano.a(lib_a-findfp.o) (__wrap__malloc_r)
ym/cmsis-core/source/cmsis-core.a(cmsis_nvic.c.o)
                              ym/uvisor-lib/source/uvisor-lib.a(interrupts.cpp.o) (NVIC_SetVector)

Allocating common symbols
Common symbol       size              file

errno               0x4               /usr/local/Cellar/arm-none-eabi-gcc/4.9-2015-q2-update/bin/../lib/gcc/arm-none-eabi/4.9.3/../../../../arm-none-eabi/lib/armv7e-m/libc_nano.a(lib_a-reent.o)
stdio_uart          0x40              ym/mbed-hal-ksdk-mcu/source/mbed-hal-ksdk-mcu.a(serial_api.c.o)

Discarded input sections

 .text          0x0000000000000000        0x0 /usr/local/Cellar/arm-none-eabi-gcc/4.9-2015-q2-update/bin/../lib/gcc/arm-none-eabi/4.9.3/armv7e-m/crti.o
 .data          0x0000000000000000        0x0 /usr/local/Cellar/arm-none-eabi-gcc/4.9-2015-q2-update/bin/../lib/gcc/arm-none-eabi/4.9.3/armv7e-m/crti.o
 .bss           0x0000000000000000        0x0 /usr/local/Cellar/arm-none-eabi-gcc/4.9-2015-q2-update/bin/../lib/gcc/arm-none-eabi/4.9.3/armv7e-m/crti.o
 .data          0x0000000000000000        0x0 /usr/local/Cellar/arm-none-eabi-gcc/4.9-2015-q2-update/bin/../lib/gcc/arm-none-eabi/4.9.3/../../../../arm-none-eabi/lib/armv7e-m/crt0.o
 .bss           0x0000000000000000        0x0 /usr/local/Cellar/arm-none-eabi-gcc/4.9-2015-q2-update/bin/../lib/gcc/arm-none-eabi/4.9.3/../../../../arm-none-eabi/lib/armv7e-m/crt0.o
 .ARM.extab     0x0000000000000000        0x0 /usr/local/Cellar/arm-none-eabi-gcc/4.9-2015-q2-update/bin/../lib/gcc/arm-none-eabi/4.9.3/../../../../arm-none-eabi/lib/armv7e-m/crt0.o
 .text          0x0000000000000000        0x0 test/CMakeFiles/ds1820-mbedos-test-sense.dir/Users/andrewbrannan/converge/code/DS1820-mbedOS/test/sense.cpp.o
 .data          0x0000000000000000        0x0 test/CMakeFiles/ds1820-mbedos-test-sense.dir/Users/andrewbrannan/converge/code/DS1820-mbedOS/test/sense.cpp.o
 .bss           0x0000000000000000        0x0 test/CMakeFiles/ds1820-mbedos-test-sense.dir/Users/andrewbrannan/converge/code/DS1820-mbedOS/test/sense.cpp.o
 .group         0x0000000000000000        0x8 ym/mbed-drivers/source/mbed-drivers.a(retarget.cpp.o)
 .group         0x0000000000000000        0xc ym/mbed-drivers/source/mbed-drivers.a(retarget.cpp.o)
 .group         0x0000000000000000        0x8 ym/mbed-drivers/source/mbed-drivers.a(retarget.cpp.o)
 .group         0x0000000000000000        0x8 ym/mbed-drivers/source/mbed-drivers.a(retarget.cpp.o)
 .group         0x0000000000000000        0x8 ym/mbed-drivers/source/mbed-drivers.a(retarget.cpp.o)
 .group         0x0000000000000000        0xc ym/mbed-drivers/source/mbed-drivers.a(retarget.cpp.o)
 .group         0x0000000000000000        0x8 ym/mbed-drivers/source/mbed-drivers.a(retarget.cpp.o)
 .group         0x0000000000000000        0x8 ym/mbed-drivers/source/mbed-drivers.a(retarget.cpp.o)
 .group         0x0000000000000000        0x8 ym/mbed-drivers/source/mbed-drivers.a(retarget.cpp.o)
 .group         0x0000000000000000        0x8 ym/mbed-drivers/source/mbed-drivers.a(retarget.cpp.o)
 .group         0x0000000000000000        0xc ym/mbed-drivers/source/mbed-drivers.a(retarget.cpp.o)
 .group         0x0000000000000000        0x8 ym/mbed-drivers/source/mbed-drivers.a(retarget.cpp.o)
 .group         0x0000000000000000        0x8 ym/mbed-drivers/source/mbed-drivers.a(retarget.cpp.o)
 .group         0x0000000000000000        0x8 ym/mbed-drivers/source/mbed-drivers.a(retarget.cpp.o)
 .group         0x0000000000000000        0x8 ym/mbed-drivers/source/mbed-drivers.a(retarget.cpp.o)
 .group         0x0000000000000000        0x8 ym/mbed-drivers/source/mbed-drivers.a(retarget.cpp.o)
 .group         0x0000000000000000        0x8 ym/mbed-drivers/source/mbed-drivers.a(retarget.cpp.o)
 .group         0x0000000000000000        0x8 ym/mbed-drivers/source/mbed-drivers.a(retarget.cpp.o)
 .text          0x0000000000000000        0x0 ym/mbed-drivers/source/mbed-drivers.a(retarget.cpp.o)
 .data          0x0000000000000000        0x0 ym/mbed-drivers/source/mbed-drivers.a(retarget.cpp.o)
 .bss           0x0000000000000000        0x0 ym/mbed-drivers/source/mbed-drivers.a(retarget.cpp.o)
 .text._ZN4mbed10FileHandle4flenEv
                0x0000000000000000       0x34 ym/mbed-drivers/source/mbed-drivers.a(retarget.cpp.o)
 .text._ZN4mbed4util19FunctionPointerBaseIvED2Ev
                0x0000000000000000        0x2 ym/mbed-drivers/source/mbed-drivers.a(retarget.cpp.o)
 .text._ZN4mbed4util19FunctionPointerBaseIvED0Ev
                0x0000000000000000        0xc ym/mbed-drivers/source/mbed-drivers.a(retarget.cpp.o)
 .text._ZN4mbed10FileHandleD2Ev
                0x0000000000000000       0x28 ym/mbed-drivers/source/mbed-drivers.a(retarget.cpp.o)
 .text._ZN4mbed10FileHandleD0Ev
                0x0000000000000000       0x12 ym/mbed-drivers/source/mbed-drivers.a(retarget.cpp.o)
 .text._open    0x0000000000000000       0xd0 ym/mbed-drivers/source/mbed-drivers.a(retarget.cpp.o)
 .text.remove   0x0000000000000000       0x2e ym/mbed-drivers/source/mbed-drivers.a(retarget.cpp.o)
 .text.rename   0x0000000000000000       0x4e ym/mbed-drivers/source/mbed-drivers.a(retarget.cpp.o)
 .text.tmpnam   0x0000000000000000        0x4 ym/mbed-drivers/source/mbed-drivers.a(retarget.cpp.o)
 .text.tmpfile  0x0000000000000000        0x4 ym/mbed-drivers/source/mbed-drivers.a(retarget.cpp.o)
 .text.opendir  0x0000000000000000       0x3a ym/mbed-drivers/source/mbed-drivers.a(retarget.cpp.o)
 .text.readdir  0x0000000000000000        0x6 ym/mbed-drivers/source/mbed-drivers.a(retarget.cpp.o)
 .text.closedir
                0x0000000000000000        0x6 ym/mbed-drivers/source/mbed-drivers.a(retarget.cpp.o)
 .text.rewinddir
                0x0000000000000000        0x6 ym/mbed-drivers/source/mbed-drivers.a(retarget.cpp.o)
 .text.telldir  0x0000000000000000        0x6 ym/mbed-drivers/source/mbed-drivers.a(retarget.cpp.o)
 .text.seekdir  0x0000000000000000        0x6 ym/mbed-drivers/source/mbed-drivers.a(retarget.cpp.o)
 .text.mkdir    0x0000000000000000       0x34 ym/mbed-drivers/source/mbed-drivers.a(retarget.cpp.o)
 .text._ZN9__gnu_cxx27__verbose_terminate_handlerEv
                0x0000000000000000        0xc ym/mbed-drivers/source/mbed-drivers.a(retarget.cpp.o)
 .text.__cxa_pure_virtual
                0x0000000000000000        0x8 ym/mbed-drivers/source/mbed-drivers.a(retarget.cpp.o)
 .rodata.__stdin_name
                0x0000000000000000        0x7 ym/mbed-drivers/source/mbed-drivers.a(retarget.cpp.o)
 .rodata.__stderr_name
                0x0000000000000000        0x8 ym/mbed-drivers/source/mbed-drivers.a(retarget.cpp.o)
 .rodata.str1.1
                0x0000000000000000        0xe ym/mbed-drivers/source/mbed-drivers.a(retarget.cpp.o)
 .rodata.__stdout_name
                0x0000000000000000        0x8 ym/mbed-drivers/source/mbed-drivers.a(retarget.cpp.o)
 .rodata._ZTVN4mbed10FileHandleE
                0x0000000000000000       0x2c ym/mbed-drivers/source/mbed-drivers.a(retarget.cpp.o)
 .text          0x0000000000000000        0x0 ym/mbed-drivers/source/mbed-drivers.a(FilePath.cpp.o)
 .data          0x0000000000000000        0x0 ym/mbed-drivers/source/mbed-drivers.a(FilePath.cpp.o)
 .bss           0x0000000000000000        0x0 ym/mbed-drivers/source/mbed-drivers.a(FilePath.cpp.o)
 .text._ZN4mbed8FilePathC2EPKc
                0x0000000000000000       0x3c ym/mbed-drivers/source/mbed-drivers.a(FilePath.cpp.o)
 .text._ZN4mbed8FilePath8fileNameEv
                0x0000000000000000        0x4 ym/mbed-drivers/source/mbed-drivers.a(FilePath.cpp.o)
 .text._ZN4mbed8FilePath12isFileSystemEv
                0x0000000000000000       0x12 ym/mbed-drivers/source/mbed-drivers.a(FilePath.cpp.o)
 .text._ZN4mbed8FilePath10fileSystemEv
                0x0000000000000000        0xe ym/mbed-drivers/source/mbed-drivers.a(FilePath.cpp.o)
 .text._ZN4mbed8FilePath6isFileEv
                0x0000000000000000       0x12 ym/mbed-drivers/source/mbed-drivers.a(FilePath.cpp.o)
 .text._ZN4mbed8FilePath4fileEv
                0x0000000000000000       0x12 ym/mbed-drivers/source/mbed-drivers.a(FilePath.cpp.o)
 .text._ZN4mbed8FilePath6existsEv
                0x0000000000000000        0xa ym/mbed-drivers/source/mbed-drivers.a(FilePath.cpp.o)
 .debug_info    0x0000000000000000     0x13c8 ym/mbed-drivers/source/mbed-drivers.a(FilePath.cpp.o)
 .debug_abbrev  0x0000000000000000      0x36b ym/mbed-drivers/source/mbed-drivers.a(FilePath.cpp.o)
 .debug_loc     0x0000000000000000      0x161 ym/mbed-drivers/source/mbed-drivers.a(FilePath.cpp.o)
 .debug_aranges
                0x0000000000000000       0x50 ym/mbed-drivers/source/mbed-drivers.a(FilePath.cpp.o)
 .debug_ranges  0x0000000000000000       0x58 ym/mbed-drivers/source/mbed-drivers.a(FilePath.cpp.o)
 .debug_line    0x0000000000000000      0x4a0 ym/mbed-drivers/source/mbed-drivers.a(FilePath.cpp.o)
 .debug_str     0x0000000000000000      0x97e ym/mbed-drivers/source/mbed-drivers.a(FilePath.cpp.o)
 .comment       0x0000000000000000       0x71 ym/mbed-drivers/source/mbed-drivers.a(FilePath.cpp.o)
 .debug_frame   0x0000000000000000       0xa8 ym/mbed-drivers/source/mbed-drivers.a(FilePath.cpp.o)
 .ARM.attributes
                0x0000000000000000       0x33 ym/mbed-drivers/source/mbed-drivers.a(FilePath.cpp.o)
 .text          0x0000000000000000        0x0 ym/mbed-drivers/source/mbed-drivers.a(FileBase.cpp.o)
 .data          0x0000000000000000        0x0 ym/mbed-drivers/source/mbed-drivers.a(FileBase.cpp.o)
 .bss           0x0000000000000000        0x0 ym/mbed-drivers/source/mbed-drivers.a(FileBase.cpp.o)
 .text._ZN4mbed8FileBaseD2Ev
                0x0000000000000000       0x30 ym/mbed-drivers/source/mbed-drivers.a(FileBase.cpp.o)
 .text._ZN4mbed8FileBaseD0Ev
                0x0000000000000000       0x12 ym/mbed-drivers/source/mbed-drivers.a(FileBase.cpp.o)
 .text._ZN4mbed8FileBaseC2EPKcNS_8PathTypeE
                0x0000000000000000       0x20 ym/mbed-drivers/source/mbed-drivers.a(FileBase.cpp.o)
 .text._ZN4mbed8FileBase6lookupEPKcj
                0x0000000000000000       0x34 ym/mbed-drivers/source/mbed-drivers.a(FileBase.cpp.o)
 .text._ZN4mbed8FileBase3getEi
                0x0000000000000000       0x1c ym/mbed-drivers/source/mbed-drivers.a(FileBase.cpp.o)
 .text._ZN4mbed8FileBase7getNameEv
                0x0000000000000000        0x4 ym/mbed-drivers/source/mbed-drivers.a(FileBase.cpp.o)
 .text._ZN4mbed8FileBase11getPathTypeEv
                0x0000000000000000        0x4 ym/mbed-drivers/source/mbed-drivers.a(FileBase.cpp.o)
 .rodata._ZTVN4mbed8FileBaseE
                0x0000000000000000       0x10 ym/mbed-drivers/source/mbed-drivers.a(FileBase.cpp.o)
 .bss._ZN4mbed8FileBase5_headE
                0x0000000000000000        0x4 ym/mbed-drivers/source/mbed-drivers.a(FileBase.cpp.o)
 .debug_info    0x0000000000000000     0x1a75 ym/mbed-drivers/source/mbed-drivers.a(FileBase.cpp.o)
 .debug_abbrev  0x0000000000000000      0x475 ym/mbed-drivers/source/mbed-drivers.a(FileBase.cpp.o)
 .debug_loc     0x0000000000000000      0x153 ym/mbed-drivers/source/mbed-drivers.a(FileBase.cpp.o)
 .debug_aranges
                0x0000000000000000       0x50 ym/mbed-drivers/source/mbed-drivers.a(FileBase.cpp.o)
 .debug_ranges  0x0000000000000000       0x58 ym/mbed-drivers/source/mbed-drivers.a(FileBase.cpp.o)
 .debug_line    0x0000000000000000      0x554 ym/mbed-drivers/source/mbed-drivers.a(FileBase.cpp.o)
 .debug_str     0x0000000000000000      0xdc0 ym/mbed-drivers/source/mbed-drivers.a(FileBase.cpp.o)
 .comment       0x0000000000000000       0x71 ym/mbed-drivers/source/mbed-drivers.a(FileBase.cpp.o)
 .debug_frame   0x0000000000000000       0x98 ym/mbed-drivers/source/mbed-drivers.a(FileBase.cpp.o)
 .ARM.attributes
                0x0000000000000000       0x33 ym/mbed-drivers/source/mbed-drivers.a(FileBase.cpp.o)
 .text          0x0000000000000000        0x0 ym/mbed-drivers/source/mbed-drivers.a(exit.c.o)
 .data          0x0000000000000000        0x0 ym/mbed-drivers/source/mbed-drivers.a(exit.c.o)
 .bss           0x0000000000000000        0x0 ym/mbed-drivers/source/mbed-drivers.a(exit.c.o)
 .text          0x0000000000000000        0x0 ym/mbed-drivers/source/mbed-drivers.a(board.c.o)
 .data          0x0000000000000000        0x0 ym/mbed-drivers/source/mbed-drivers.a(board.c.o)
 .bss           0x0000000000000000        0x0 ym/mbed-drivers/source/mbed-drivers.a(board.c.o)
 .text          0x0000000000000000        0x0 ym/mbed-drivers/source/mbed-drivers.a(wait_api.c.o)
 .data          0x0000000000000000        0x0 ym/mbed-drivers/source/mbed-drivers.a(wait_api.c.o)
 .bss           0x0000000000000000        0x0 ym/mbed-drivers/source/mbed-drivers.a(wait_api.c.o)
 .text          0x0000000000000000        0x0 ym/mbed-drivers/source/mbed-drivers.a(error.c.o)
 .data          0x0000000000000000        0x0 ym/mbed-drivers/source/mbed-drivers.a(error.c.o)
 .bss           0x0000000000000000        0x0 ym/mbed-drivers/source/mbed-drivers.a(error.c.o)
 .group         0x0000000000000000        0x8 ym/mbed-drivers/source/mbed-drivers.a(FileSystemLike.cpp.o)
 .group         0x0000000000000000        0x8 ym/mbed-drivers/source/mbed-drivers.a(FileSystemLike.cpp.o)
 .group         0x0000000000000000        0x8 ym/mbed-drivers/source/mbed-drivers.a(FileSystemLike.cpp.o)
 .group         0x0000000000000000        0x8 ym/mbed-drivers/source/mbed-drivers.a(FileSystemLike.cpp.o)
 .group         0x0000000000000000        0x8 ym/mbed-drivers/source/mbed-drivers.a(FileSystemLike.cpp.o)
 .group         0x0000000000000000        0x8 ym/mbed-drivers/source/mbed-drivers.a(FileSystemLike.cpp.o)
 .group         0x0000000000000000        0x8 ym/mbed-drivers/source/mbed-drivers.a(FileSystemLike.cpp.o)
 .group         0x0000000000000000        0x8 ym/mbed-drivers/source/mbed-drivers.a(FileSystemLike.cpp.o)
 .group         0x0000000000000000        0x8 ym/mbed-drivers/source/mbed-drivers.a(FileSystemLike.cpp.o)
 .group         0x0000000000000000        0x8 ym/mbed-drivers/source/mbed-drivers.a(FileSystemLike.cpp.o)
 .group         0x0000000000000000        0xc ym/mbed-drivers/source/mbed-drivers.a(FileSystemLike.cpp.o)
 .group         0x0000000000000000        0x8 ym/mbed-drivers/source/mbed-drivers.a(FileSystemLike.cpp.o)
 .group         0x0000000000000000        0x8 ym/mbed-drivers/source/mbed-drivers.a(FileSystemLike.cpp.o)
 .text          0x0000000000000000        0x0 ym/mbed-drivers/source/mbed-drivers.a(FileSystemLike.cpp.o)
 .data          0x0000000000000000        0x0 ym/mbed-drivers/source/mbed-drivers.a(FileSystemLike.cpp.o)
 .bss           0x0000000000000000        0x0 ym/mbed-drivers/source/mbed-drivers.a(FileSystemLike.cpp.o)
 .text._ZN4mbed9DirHandle7telldirEv
                0x0000000000000000        0x6 ym/mbed-drivers/source/mbed-drivers.a(FileSystemLike.cpp.o)
 .text._ZN4mbed9DirHandle7seekdirEl
                0x0000000000000000        0x2 ym/mbed-drivers/source/mbed-drivers.a(FileSystemLike.cpp.o)
 .text._ZN4mbed14FileSystemLike6removeEPKc
                0x0000000000000000        0x6 ym/mbed-drivers/source/mbed-drivers.a(FileSystemLike.cpp.o)
 .text._ZN4mbed14FileSystemLike6renameEPKcS2_
                0x0000000000000000        0x6 ym/mbed-drivers/source/mbed-drivers.a(FileSystemLike.cpp.o)
 .text._ZN4mbed14FileSystemLike7opendirEPKc
                0x0000000000000000        0x4 ym/mbed-drivers/source/mbed-drivers.a(FileSystemLike.cpp.o)
 .text._ZN4mbed14FileSystemLike5mkdirEPKcj
                0x0000000000000000        0x6 ym/mbed-drivers/source/mbed-drivers.a(FileSystemLike.cpp.o)
 .text._ZN4mbed13BaseDirHandle8closedirEv
                0x0000000000000000        0xe ym/mbed-drivers/source/mbed-drivers.a(FileSystemLike.cpp.o)
 .text._ZN4mbed13BaseDirHandle7telldirEv
                0x0000000000000000        0x4 ym/mbed-drivers/source/mbed-drivers.a(FileSystemLike.cpp.o)
 .text._ZN4mbed13BaseDirHandle7seekdirEl
                0x0000000000000000        0x4 ym/mbed-drivers/source/mbed-drivers.a(FileSystemLike.cpp.o)
 .text._ZN4mbed13BaseDirHandle9rewinddirEv
                0x0000000000000000        0x6 ym/mbed-drivers/source/mbed-drivers.a(FileSystemLike.cpp.o)
 .text._ZN4mbed13BaseDirHandleD2Ev
                0x0000000000000000        0x2 ym/mbed-drivers/source/mbed-drivers.a(FileSystemLike.cpp.o)
 .text._ZN4mbed13BaseDirHandleD0Ev
                0x0000000000000000        0xc ym/mbed-drivers/source/mbed-drivers.a(FileSystemLike.cpp.o)
 .text._ZN4mbed13BaseDirHandle7readdirEv
                0x0000000000000000       0x2a ym/mbed-drivers/source/mbed-drivers.a(FileSystemLike.cpp.o)
 .text._ZN4mbed14FileSystemLikeC2EPKc
                0x0000000000000000       0x18 ym/mbed-drivers/source/mbed-drivers.a(FileSystemLike.cpp.o)
 .text._ZN4mbed14FileSystemLikeD2Ev
                0x0000000000000000       0x14 ym/mbed-drivers/source/mbed-drivers.a(FileSystemLike.cpp.o)
 .text._ZN4mbed14FileSystemLikeD0Ev
                0x0000000000000000       0x12 ym/mbed-drivers/source/mbed-drivers.a(FileSystemLike.cpp.o)
 .text._ZN4mbed14FileSystemLike7opendirEv
                0x0000000000000000       0x28 ym/mbed-drivers/source/mbed-drivers.a(FileSystemLike.cpp.o)
 .rodata._ZTVN4mbed13BaseDirHandleE
                0x0000000000000000       0x24 ym/mbed-drivers/source/mbed-drivers.a(FileSystemLike.cpp.o)
 .rodata._ZTVN4mbed14FileSystemLikeE
                0x0000000000000000       0x24 ym/mbed-drivers/source/mbed-drivers.a(FileSystemLike.cpp.o)
 .debug_info    0x0000000000000000     0x1ab5 ym/mbed-drivers/source/mbed-drivers.a(FileSystemLike.cpp.o)
 .debug_abbrev  0x0000000000000000      0x505 ym/mbed-drivers/source/mbed-drivers.a(FileSystemLike.cpp.o)
 .debug_loc     0x0000000000000000      0x1fb ym/mbed-drivers/source/mbed-drivers.a(FileSystemLike.cpp.o)
 .debug_aranges
                0x0000000000000000       0xa0 ym/mbed-drivers/source/mbed-drivers.a(FileSystemLike.cpp.o)
 .debug_ranges  0x0000000000000000       0xa8 ym/mbed-drivers/source/mbed-drivers.a(FileSystemLike.cpp.o)
 .debug_line    0x0000000000000000      0x57c ym/mbed-drivers/source/mbed-drivers.a(FileSystemLike.cpp.o)
 .debug_str     0x0000000000000000      0xc2f ym/mbed-drivers/source/mbed-drivers.a(FileSystemLike.cpp.o)
 .comment       0x0000000000000000       0x71 ym/mbed-drivers/source/mbed-drivers.a(FileSystemLike.cpp.o)
 .debug_frame   0x0000000000000000      0x15c ym/mbed-drivers/source/mbed-drivers.a(FileSystemLike.cpp.o)
 .ARM.attributes
                0x0000000000000000       0x33 ym/mbed-drivers/source/mbed-drivers.a(FileSystemLike.cpp.o)
 .text          0x0000000000000000        0x0 ym/mbed-drivers/source/mbed-drivers.a(gpio.c.o)
 .data          0x0000000000000000        0x0 ym/mbed-drivers/source/mbed-drivers.a(gpio.c.o)
 .bss           0x0000000000000000        0x0 ym/mbed-drivers/source/mbed-drivers.a(gpio.c.o)
 .text.gpio_init_in_ex
                0x0000000000000000        0x4 ym/mbed-drivers/source/mbed-drivers.a(gpio.c.o)
 .text.gpio_init_inout
                0x0000000000000000       0x48 ym/mbed-drivers/source/mbed-drivers.a(gpio.c.o)
 .text          0x0000000000000000        0x0 source/ds1820-mbedos.a(DS1820.cpp.o)
 .data          0x0000000000000000        0x0 source/ds1820-mbedos.a(DS1820.cpp.o)
 .bss           0x0000000000000000        0x0 source/ds1820-mbedos.a(DS1820.cpp.o)
 .text._ZN6DS1820D2Ev
                0x0000000000000000       0x34 source/ds1820-mbedos.a(DS1820.cpp.o)
 .text._ZN6DS182016write_scratchpadEi
                0x0000000000000000       0x3e source/ds1820-mbedos.a(DS1820.cpp.o)
 .text._ZN6DS182013setResolutionEj
                0x0000000000000000       0x28 source/ds1820-mbedos.a(DS1820.cpp.o)
 .group         0x0000000000000000        0x8 source/ds1820-mbedos.a(LinkedList.cpp.o)
 .group         0x0000000000000000        0x8 source/ds1820-mbedos.a(LinkedList.cpp.o)
 .group         0x0000000000000000        0x8 source/ds1820-mbedos.a(LinkedList.cpp.o)
 .group         0x0000000000000000        0x8 source/ds1820-mbedos.a(LinkedList.cpp.o)
 .group         0x0000000000000000        0x8 source/ds1820-mbedos.a(LinkedList.cpp.o)
 .group         0x0000000000000000        0x8 source/ds1820-mbedos.a(LinkedList.cpp.o)
 .group         0x0000000000000000        0x8 source/ds1820-mbedos.a(LinkedList.cpp.o)
 .text          0x0000000000000000        0x0 source/ds1820-mbedos.a(LinkedList.cpp.o)
 .data          0x0000000000000000        0x0 source/ds1820-mbedos.a(LinkedList.cpp.o)
 .bss           0x0000000000000000        0x0 source/ds1820-mbedos.a(LinkedList.cpp.o)
 .text._ZN10LinkedListI4nodeE4pushEPv
                0x0000000000000000       0x16 source/ds1820-mbedos.a(LinkedList.cpp.o)
 .group         0x0000000000000000        0xc ym/minar/source/minar.a(minar.cpp.o)
 .group         0x0000000000000000        0x8 ym/minar/source/minar.a(minar.cpp.o)
 .group         0x0000000000000000        0x8 ym/minar/source/minar.a(minar.cpp.o)
 .group         0x0000000000000000        0x8 ym/minar/source/minar.a(minar.cpp.o)
 .group         0x0000000000000000        0xc ym/minar/source/minar.a(minar.cpp.o)
 .group         0x0000000000000000        0x8 ym/minar/source/minar.a(minar.cpp.o)
 .group         0x0000000000000000        0x8 ym/minar/source/minar.a(minar.cpp.o)
 .group         0x0000000000000000        0x8 ym/minar/source/minar.a(minar.cpp.o)
 .group         0x0000000000000000        0x8 ym/minar/source/minar.a(minar.cpp.o)
 .group         0x0000000000000000        0x8 ym/minar/source/minar.a(minar.cpp.o)
 .group         0x0000000000000000        0x8 ym/minar/source/minar.a(minar.cpp.o)
 .group         0x0000000000000000        0x8 ym/minar/source/minar.a(minar.cpp.o)
 .group         0x0000000000000000        0x8 ym/minar/source/minar.a(minar.cpp.o)
 .group         0x0000000000000000        0x8 ym/minar/source/minar.a(minar.cpp.o)
 .group         0x0000000000000000        0x8 ym/minar/source/minar.a(minar.cpp.o)
 .group         0x0000000000000000        0x8 ym/minar/source/minar.a(minar.cpp.o)
 .group         0x0000000000000000        0x8 ym/minar/source/minar.a(minar.cpp.o)
 .group         0x0000000000000000        0x8 ym/minar/source/minar.a(minar.cpp.o)
 .group         0x0000000000000000        0x8 ym/minar/source/minar.a(minar.cpp.o)
 .group         0x0000000000000000        0x8 ym/minar/source/minar.a(minar.cpp.o)
 .text          0x0000000000000000        0x0 ym/minar/source/minar.a(minar.cpp.o)
 .data          0x0000000000000000        0x0 ym/minar/source/minar.a(minar.cpp.o)
 .bss           0x0000000000000000        0x0 ym/minar/source/minar.a(minar.cpp.o)
 .text._ZN4mbed4util19FunctionPointerBindIvED2Ev
                0x0000000000000000       0x18 ym/minar/source/minar.a(minar.cpp.o)
 .text._ZN4mbed4util19FunctionPointerBaseIvE17_null_constructorEPvSt9__va_list
                0x0000000000000000        0x2 ym/minar/source/minar.a(minar.cpp.o)
 .text._ZN4mbed4util19FunctionPointerBaseIvE15_null_copy_argsEPvS3_
                0x0000000000000000        0x2 ym/minar/source/minar.a(minar.cpp.o)
 .text._ZN4mbed4util19FunctionPointerBaseIvE16_null_destructorEPv
                0x0000000000000000        0x2 ym/minar/source/minar.a(minar.cpp.o)
 .text._ZN4mbed4util19FunctionPointerBaseIvED2Ev
                0x0000000000000000        0x2 ym/minar/source/minar.a(minar.cpp.o)
 .text._ZN4mbed4util19FunctionPointerBindIvED0Ev
                0x0000000000000000       0x12 ym/minar/source/minar.a(minar.cpp.o)
 .text._ZN4mbed4util19FunctionPointerBaseIvED0Ev
                0x0000000000000000        0xc ym/minar/source/minar.a(minar.cpp.o)
 .text._ZN4mbed4util19FunctionPointerBaseIvE5clearEv
                0x0000000000000000        0xe ym/minar/source/minar.a(minar.cpp.o)
 .text._ZN4mbed4util19FunctionPointerBindIvE5clearEv
                0x0000000000000000       0x24 ym/minar/source/minar.a(minar.cpp.o)
 .text._ZN5minar9Scheduler13CallbackAdder5delayEm
                0x0000000000000000        0x4 ym/minar/source/minar.a(minar.cpp.o)
 .text._ZN5minar9Scheduler13CallbackAdder9toleranceEm
                0x0000000000000000        0x4 ym/minar/source/minar.a(minar.cpp.o)
 .text._ZN5minar9Scheduler13CallbackAdder6periodEm
                0x0000000000000000        0x4 ym/minar/source/minar.a(minar.cpp.o)
 .text._ZN5minar12millisecondsEm
                0x0000000000000000       0x14 ym/minar/source/minar.a(minar.cpp.o)
 .text._ZN5minar5ticksEm
                0x0000000000000000       0x10 ym/minar/source/minar.a(minar.cpp.o)
 .text._ZN5minar13SchedulerData6cancelEPv
                0x0000000000000000       0x82 ym/minar/source/minar.a(minar.cpp.o)
 .text._ZN5minar9Scheduler4stopEv
                0x0000000000000000       0x1c ym/minar/source/minar.a(minar.cpp.o)
 .text._ZN5minar9Scheduler14cancelCallbackEPv
                0x0000000000000000       0x1c ym/minar/source/minar.a(minar.cpp.o)
 .text._ZN5minar9Scheduler7getTimeEv
                0x0000000000000000       0x14 ym/minar/source/minar.a(minar.cpp.o)
 .text._ZN5minar7getTimeEv
                0x0000000000000000        0xe ym/minar/source/minar.a(minar.cpp.o)
 .rodata._ZN4mbed4util19FunctionPointerBaseIvE8_nullopsE
                0x0000000000000000        0xc ym/minar/source/minar.a(minar.cpp.o)
 .rodata._ZTVN4mbed4util19FunctionPointerBindIvEE
                0x0000000000000000       0x14 ym/minar/source/minar.a(minar.cpp.o)
 .text          0x0000000000000000        0x0 ym/core-util/source/core-util.a(ExtendablePoolAllocator.cpp.o)
 .data          0x0000000000000000        0x0 ym/core-util/source/core-util.a(ExtendablePoolAllocator.cpp.o)
 .bss           0x0000000000000000        0x0 ym/core-util/source/core-util.a(ExtendablePoolAllocator.cpp.o)
 .text._ZN4mbed4util23ExtendablePoolAllocatorD2Ev
                0x0000000000000000       0x1c ym/core-util/source/core-util.a(ExtendablePoolAllocator.cpp.o)
 .text._ZNK4mbed4util23ExtendablePoolAllocator13get_num_poolsEv
                0x0000000000000000        0xe ym/core-util/source/core-util.a(ExtendablePoolAllocator.cpp.o)
 .text._ZN4mbed4util23ExtendablePoolAllocator6callocEv
                0x0000000000000000       0x20 ym/core-util/source/core-util.a(ExtendablePoolAllocator.cpp.o)
 .text          0x0000000000000000        0x0 ym/core-util/source/core-util.a(PoolAllocator.cpp.o)
 .data          0x0000000000000000        0x0 ym/core-util/source/core-util.a(PoolAllocator.cpp.o)
 .bss           0x0000000000000000        0x0 ym/core-util/source/core-util.a(PoolAllocator.cpp.o)
 .text._ZN4mbed4util13PoolAllocator6callocEv
                0x0000000000000000       0x20 ym/core-util/source/core-util.a(PoolAllocator.cpp.o)
 .text._ZNK4mbed4util13PoolAllocator17get_start_addressEv
                0x0000000000000000        0x4 ym/core-util/source/core-util.a(PoolAllocator.cpp.o)
 .text          0x0000000000000000        0x0 ym/core-util/source/core-util.a(core-util_mbed_os.c.o)
 .data          0x0000000000000000        0x0 ym/core-util/source/core-util.a(core-util_mbed_os.c.o)
 .bss           0x0000000000000000        0x0 ym/core-util/source/core-util.a(core-util_mbed_os.c.o)
 .text.core_util_assert_internal
                0x0000000000000000       0x4c ym/core-util/source/core-util.a(core-util_mbed_os.c.o)
 .text          0x0000000000000000        0x0 ym/mbed-hal-ksdk-mcu/source/mbed-hal-ksdk-mcu.a(serial_api.c.o)
 .data          0x0000000000000000        0x0 ym/mbed-hal-ksdk-mcu/source/mbed-hal-ksdk-mcu.a(serial_api.c.o)
 .bss           0x0000000000000000        0x0 ym/mbed-hal-ksdk-mcu/source/mbed-hal-ksdk-mcu.a(serial_api.c.o)
 .text.UART_HAL_DisableTransmitter
                0x0000000000000000       0x18 ym/mbed-hal-ksdk-mcu/source/mbed-hal-ksdk-mcu.a(serial_api.c.o)
 .text.UART_HAL_DisableReceiver
                0x0000000000000000       0x18 ym/mbed-hal-ksdk-mcu/source/mbed-hal-ksdk-mcu.a(serial_api.c.o)
 .text.UART_HAL_SetTxDataRegEmptyIntCmd
                0x0000000000000000       0x16 ym/mbed-hal-ksdk-mcu/source/mbed-hal-ksdk-mcu.a(serial_api.c.o)
 .text.UART_HAL_SetRxDataRegFullIntCmd
                0x0000000000000000       0x16 ym/mbed-hal-ksdk-mcu/source/mbed-hal-ksdk-mcu.a(serial_api.c.o)
 .text.UART_HAL_SetBreakCharCmd
                0x0000000000000000       0x16 ym/mbed-hal-ksdk-mcu/source/mbed-hal-ksdk-mcu.a(serial_api.c.o)
 .text.UART_HAL_IsRxFifoEmpty
                0x0000000000000000       0x20 ym/mbed-hal-ksdk-mcu/source/mbed-hal-ksdk-mcu.a(serial_api.c.o)
 .text.UART_HAL_GetTxDatawordCountInFifo
                0x0000000000000000       0x12 ym/mbed-hal-ksdk-mcu/source/mbed-hal-ksdk-mcu.a(serial_api.c.o)
 .text.serial_buffer_rx_read
                0x0000000000000000       0x40 ym/mbed-hal-ksdk-mcu/source/mbed-hal-ksdk-mcu.a(serial_api.c.o)
 .text.serial_write_asynch
                0x0000000000000000       0x4e ym/mbed-hal-ksdk-mcu/source/mbed-hal-ksdk-mcu.a(serial_api.c.o)
 .text.serial_irq_set.part.4
                0x0000000000000000       0x48 ym/mbed-hal-ksdk-mcu/source/mbed-hal-ksdk-mcu.a(serial_api.c.o)
 .text.serial_free
                0x0000000000000000       0x10 ym/mbed-hal-ksdk-mcu/source/mbed-hal-ksdk-mcu.a(serial_api.c.o)
 .text.serial_baud
                0x0000000000000000       0x18 ym/mbed-hal-ksdk-mcu/source/mbed-hal-ksdk-mcu.a(serial_api.c.o)
 .text.serial_format
                0x0000000000000000       0x40 ym/mbed-hal-ksdk-mcu/source/mbed-hal-ksdk-mcu.a(serial_api.c.o)
 .text.serial_irq_handler
                0x0000000000000000       0x18 ym/mbed-hal-ksdk-mcu/source/mbed-hal-ksdk-mcu.a(serial_api.c.o)
 .text.serial_irq_set
                0x0000000000000000       0x3c ym/mbed-hal-ksdk-mcu/source/mbed-hal-ksdk-mcu.a(serial_api.c.o)
 .text.serial_pinout_tx
                0x0000000000000000        0xc ym/mbed-hal-ksdk-mcu/source/mbed-hal-ksdk-mcu.a(serial_api.c.o)
 .text.serial_break_set
                0x0000000000000000        0x8 ym/mbed-hal-ksdk-mcu/source/mbed-hal-ksdk-mcu.a(serial_api.c.o)
 .text.serial_break_clear
                0x0000000000000000        0x8 ym/mbed-hal-ksdk-mcu/source/mbed-hal-ksdk-mcu.a(serial_api.c.o)
 .text.serial_tx_active
                0x0000000000000000       0x34 ym/mbed-hal-ksdk-mcu/source/mbed-hal-ksdk-mcu.a(serial_api.c.o)
 .text.serial_rx_active
                0x0000000000000000       0x40 ym/mbed-hal-ksdk-mcu/source/mbed-hal-ksdk-mcu.a(serial_api.c.o)
 .text.serial_tx_asynch
                0x0000000000000000       0x52 ym/mbed-hal-ksdk-mcu/source/mbed-hal-ksdk-mcu.a(serial_api.c.o)
 .text.serial_rx_asynch
                0x0000000000000000       0xbc ym/mbed-hal-ksdk-mcu/source/mbed-hal-ksdk-mcu.a(serial_api.c.o)
 .text.serial_tx_abort_asynch
                0x0000000000000000       0x1a ym/mbed-hal-ksdk-mcu/source/mbed-hal-ksdk-mcu.a(serial_api.c.o)
 .text.serial_rx_abort_asynch
                0x0000000000000000       0x1a ym/mbed-hal-ksdk-mcu/source/mbed-hal-ksdk-mcu.a(serial_api.c.o)
 .text.serial_irq_handler_asynch
                0x0000000000000000      0x1d6 ym/mbed-hal-ksdk-mcu/source/mbed-hal-ksdk-mcu.a(serial_api.c.o)
 .text          0x0000000000000000        0x0 ym/mbed-hal-ksdk-mcu/source/mbed-hal-ksdk-mcu.a(fsl_clock_manager.c.o)
 .data          0x0000000000000000        0x0 ym/mbed-hal-ksdk-mcu/source/mbed-hal-ksdk-mcu.a(fsl_clock_manager.c.o)
 .bss           0x0000000000000000        0x0 ym/mbed-hal-ksdk-mcu/source/mbed-hal-ksdk-mcu.a(fsl_clock_manager.c.o)
 .text.CLOCK_SYS_SetSource
                0x0000000000000000       0x1c ym/mbed-hal-ksdk-mcu/source/mbed-hal-ksdk-mcu.a(fsl_clock_manager.c.o)
 .text.CLOCK_SYS_GetSource
                0x0000000000000000       0x1c ym/mbed-hal-ksdk-mcu/source/mbed-hal-ksdk-mcu.a(fsl_clock_manager.c.o)
 .text.CLOCK_SYS_SetDivider
                0x0000000000000000       0x1c ym/mbed-hal-ksdk-mcu/source/mbed-hal-ksdk-mcu.a(fsl_clock_manager.c.o)
 .text.CLOCK_SYS_GetDivider
                0x0000000000000000       0x1c ym/mbed-hal-ksdk-mcu/source/mbed-hal-ksdk-mcu.a(fsl_clock_manager.c.o)
 .rodata.g_mcgBaseAddr
                0x0000000000000000        0x4 ym/mbed-hal-ksdk-mcu/source/mbed-hal-ksdk-mcu.a(fsl_clock_manager.c.o)
 .text          0x0000000000000000        0x0 ym/mbed-hal-ksdk-mcu/source/mbed-hal-ksdk-mcu.a(gpio_api.c.o)
 .data          0x0000000000000000        0x0 ym/mbed-hal-ksdk-mcu/source/mbed-hal-ksdk-mcu.a(gpio_api.c.o)
 .bss           0x0000000000000000        0x0 ym/mbed-hal-ksdk-mcu/source/mbed-hal-ksdk-mcu.a(gpio_api.c.o)
 .text.gpio_set
                0x0000000000000000       0x12 ym/mbed-hal-ksdk-mcu/source/mbed-hal-ksdk-mcu.a(gpio_api.c.o)
 .text          0x0000000000000000        0x0 ym/mbed-hal-ksdk-mcu/source/mbed-hal-ksdk-mcu.a(us_ticker.c.o)
 .data          0x0000000000000000        0x0 ym/mbed-hal-ksdk-mcu/source/mbed-hal-ksdk-mcu.a(us_ticker.c.o)
 .bss           0x0000000000000000        0x0 ym/mbed-hal-ksdk-mcu/source/mbed-hal-ksdk-mcu.a(us_ticker.c.o)
 .text          0x0000000000000000        0x0 ym/mbed-hal-ksdk-mcu/source/mbed-hal-ksdk-mcu.a(fsl_uart_hal.c.o)
 .data          0x0000000000000000        0x0 ym/mbed-hal-ksdk-mcu/source/mbed-hal-ksdk-mcu.a(fsl_uart_hal.c.o)
 .bss           0x0000000000000000        0x0 ym/mbed-hal-ksdk-mcu/source/mbed-hal-ksdk-mcu.a(fsl_uart_hal.c.o)
 .text.UART_HAL_SetBaudRateDivisor
                0x0000000000000000       0x3e ym/mbed-hal-ksdk-mcu/source/mbed-hal-ksdk-mcu.a(fsl_uart_hal.c.o)
 .text.UART_HAL_SetTxRxInversionCmd
                0x0000000000000000       0x2c ym/mbed-hal-ksdk-mcu/source/mbed-hal-ksdk-mcu.a(fsl_uart_hal.c.o)
 .text.UART_HAL_Putchar9
                0x0000000000000000       0x3c ym/mbed-hal-ksdk-mcu/source/mbed-hal-ksdk-mcu.a(fsl_uart_hal.c.o)
 .text.UART_HAL_Getchar9
                0x0000000000000000       0x2c ym/mbed-hal-ksdk-mcu/source/mbed-hal-ksdk-mcu.a(fsl_uart_hal.c.o)
 .text.UART_HAL_SetIntMode
                0x0000000000000000       0x5e ym/mbed-hal-ksdk-mcu/source/mbed-hal-ksdk-mcu.a(fsl_uart_hal.c.o)
 .text.UART_HAL_GetIntMode
                0x0000000000000000       0x34 ym/mbed-hal-ksdk-mcu/source/mbed-hal-ksdk-mcu.a(fsl_uart_hal.c.o)
 .text.UART_HAL_ConfigureDma
                0x0000000000000000       0xa4 ym/mbed-hal-ksdk-mcu/source/mbed-hal-ksdk-mcu.a(fsl_uart_hal.c.o)
 .text.UART_HAL_IsTxdmaEnabled
                0x0000000000000000       0x44 ym/mbed-hal-ksdk-mcu/source/mbed-hal-ksdk-mcu.a(fsl_uart_hal.c.o)
 .text.UART_HAL_IsRxdmaEnabled
                0x0000000000000000       0x3c ym/mbed-hal-ksdk-mcu/source/mbed-hal-ksdk-mcu.a(fsl_uart_hal.c.o)
 .text.UART_HAL_SetTxFifoWatermark
                0x0000000000000000       0x32 ym/mbed-hal-ksdk-mcu/source/mbed-hal-ksdk-mcu.a(fsl_uart_hal.c.o)
 .text.UART_HAL_SetRxFifoWatermark
                0x0000000000000000       0x32 ym/mbed-hal-ksdk-mcu/source/mbed-hal-ksdk-mcu.a(fsl_uart_hal.c.o)
 .text.UART_HAL_PutReceiverInStandbyMode
                0x0000000000000000       0x54 ym/mbed-hal-ksdk-mcu/source/mbed-hal-ksdk-mcu.a(fsl_uart_hal.c.o)
 .text.UART_HAL_ConfigIdleLineDetect
                0x0000000000000000       0x2c ym/mbed-hal-ksdk-mcu/source/mbed-hal-ksdk-mcu.a(fsl_uart_hal.c.o)
 .text.UART_HAL_SetMatchAddress
                0x0000000000000000       0x56 ym/mbed-hal-ksdk-mcu/source/mbed-hal-ksdk-mcu.a(fsl_uart_hal.c.o)
 .text.UART_HAL_SetInfraredOperation
                0x0000000000000000       0x46 ym/mbed-hal-ksdk-mcu/source/mbed-hal-ksdk-mcu.a(fsl_uart_hal.c.o)
 .text          0x0000000000000000        0x0 ym/mbed-hal-ksdk-mcu/source/mbed-hal-ksdk-mcu.a(fsl_sim_hal.c.o)
 .data          0x0000000000000000        0x0 ym/mbed-hal-ksdk-mcu/source/mbed-hal-ksdk-mcu.a(fsl_sim_hal.c.o)
 .bss           0x0000000000000000        0x0 ym/mbed-hal-ksdk-mcu/source/mbed-hal-ksdk-mcu.a(fsl_sim_hal.c.o)
 .text.CLOCK_HAL_GetSource
                0x0000000000000000       0xcc ym/mbed-hal-ksdk-mcu/source/mbed-hal-ksdk-mcu.a(fsl_sim_hal.c.o)
 .text.CLOCK_HAL_SetDivider
                0x0000000000000000       0xf0 ym/mbed-hal-ksdk-mcu/source/mbed-hal-ksdk-mcu.a(fsl_sim_hal.c.o)
 .text.CLOCK_HAL_SetOutDividers
                0x0000000000000000       0x32 ym/mbed-hal-ksdk-mcu/source/mbed-hal-ksdk-mcu.a(fsl_sim_hal.c.o)
 .text.SIM_HAL_SetAdcAlternativeTriggerCmd
                0x0000000000000000       0x2c ym/mbed-hal-ksdk-mcu/source/mbed-hal-ksdk-mcu.a(fsl_sim_hal.c.o)
 .text.SIM_HAL_GetAdcAlternativeTriggerCmd
                0x0000000000000000       0x34 ym/mbed-hal-ksdk-mcu/source/mbed-hal-ksdk-mcu.a(fsl_sim_hal.c.o)
 .text.SIM_HAL_SetAdcPreTriggerMode
                0x0000000000000000       0x2c ym/mbed-hal-ksdk-mcu/source/mbed-hal-ksdk-mcu.a(fsl_sim_hal.c.o)
 .text.SIM_HAL_GetAdcPreTriggerMode
                0x0000000000000000       0x30 ym/mbed-hal-ksdk-mcu/source/mbed-hal-ksdk-mcu.a(fsl_sim_hal.c.o)
 .text.SIM_HAL_SetAdcTriggerMode
                0x0000000000000000       0x5c ym/mbed-hal-ksdk-mcu/source/mbed-hal-ksdk-mcu.a(fsl_sim_hal.c.o)
 .text.SIM_HAL_GetAdcTriggerMode
                0x0000000000000000       0x3a ym/mbed-hal-ksdk-mcu/source/mbed-hal-ksdk-mcu.a(fsl_sim_hal.c.o)
 .text.SIM_HAL_SetUartRxSrcMode
                0x0000000000000000       0x5c ym/mbed-hal-ksdk-mcu/source/mbed-hal-ksdk-mcu.a(fsl_sim_hal.c.o)
 .text.SIM_HAL_GetUartRxSrcMode
                0x0000000000000000       0x3a ym/mbed-hal-ksdk-mcu/source/mbed-hal-ksdk-mcu.a(fsl_sim_hal.c.o)
 .text.SIM_HAL_SetUartTxSrcMode
                0x0000000000000000       0x5c ym/mbed-hal-ksdk-mcu/source/mbed-hal-ksdk-mcu.a(fsl_sim_hal.c.o)
 .text.SIM_HAL_GetUartTxSrcMode
                0x0000000000000000       0x3a ym/mbed-hal-ksdk-mcu/source/mbed-hal-ksdk-mcu.a(fsl_sim_hal.c.o)
 .text.SIM_HAL_SetFtmTriggerSrcMode
                0x0000000000000000       0x50 ym/mbed-hal-ksdk-mcu/source/mbed-hal-ksdk-mcu.a(fsl_sim_hal.c.o)
 .text.SIM_HAL_GetFtmTriggerSrcMode
                0x0000000000000000       0x54 ym/mbed-hal-ksdk-mcu/source/mbed-hal-ksdk-mcu.a(fsl_sim_hal.c.o)
 .text.SIM_HAL_SetFtmExternalClkPinMode
                0x0000000000000000       0x48 ym/mbed-hal-ksdk-mcu/source/mbed-hal-ksdk-mcu.a(fsl_sim_hal.c.o)
 .text.SIM_HAL_GetFtmExternalClkPinMode
                0x0000000000000000       0x4c ym/mbed-hal-ksdk-mcu/source/mbed-hal-ksdk-mcu.a(fsl_sim_hal.c.o)
 .text.SIM_HAL_SetFtmChSrcMode
                0x0000000000000000       0x64 ym/mbed-hal-ksdk-mcu/source/mbed-hal-ksdk-mcu.a(fsl_sim_hal.c.o)
 .text.SIM_HAL_GetFtmChSrcMode
                0x0000000000000000       0x42 ym/mbed-hal-ksdk-mcu/source/mbed-hal-ksdk-mcu.a(fsl_sim_hal.c.o)
 .text.SIM_HAL_SetFtmFaultSelMode
                0x0000000000000000       0x68 ym/mbed-hal-ksdk-mcu/source/mbed-hal-ksdk-mcu.a(fsl_sim_hal.c.o)
 .text.SIM_HAL_GetFtmFaultSelMode
                0x0000000000000000       0x68 ym/mbed-hal-ksdk-mcu/source/mbed-hal-ksdk-mcu.a(fsl_sim_hal.c.o)
 .text          0x0000000000000000        0x0 ym/mbed-hal-ksdk-mcu/source/mbed-hal-ksdk-mcu.a(fsl_gpio_hal.c.o)
 .data          0x0000000000000000        0x0 ym/mbed-hal-ksdk-mcu/source/mbed-hal-ksdk-mcu.a(fsl_gpio_hal.c.o)
 .bss           0x0000000000000000        0x0 ym/mbed-hal-ksdk-mcu/source/mbed-hal-ksdk-mcu.a(fsl_gpio_hal.c.o)
 .text          0x0000000000000000        0x0 ym/mbed-hal-ksdk-mcu/source/mbed-hal-ksdk-mcu.a(pinmap.c.o)
 .data          0x0000000000000000        0x0 ym/mbed-hal-ksdk-mcu/source/mbed-hal-ksdk-mcu.a(pinmap.c.o)
 .bss           0x0000000000000000        0x0 ym/mbed-hal-ksdk-mcu/source/mbed-hal-ksdk-mcu.a(pinmap.c.o)
 .text          0x0000000000000000        0x0 ym/mbed-hal-ksdk-mcu/source/mbed-hal-ksdk-mcu.a(fsl_mcg_hal.c.o)
 .data          0x0000000000000000        0x0 ym/mbed-hal-ksdk-mcu/source/mbed-hal-ksdk-mcu.a(fsl_mcg_hal.c.o)
 .bss           0x0000000000000000        0x0 ym/mbed-hal-ksdk-mcu/source/mbed-hal-ksdk-mcu.a(fsl_mcg_hal.c.o)
 .text          0x0000000000000000        0x0 ym/minar-platform-mbed/source/minar-platform-mbed.a(mbed_platform.cpp.o)
 .data          0x0000000000000000        0x0 ym/minar-platform-mbed/source/minar-platform-mbed.a(mbed_platform.cpp.o)
 .bss           0x0000000000000000        0x0 ym/minar-platform-mbed/source/minar-platform-mbed.a(mbed_platform.cpp.o)
 .text._ZN5minar8platform19pushDisableIRQStateEv
                0x0000000000000000        0x8 ym/minar-platform-mbed/source/minar-platform-mbed.a(mbed_platform.cpp.o)
 .text._ZN5minar8platform18popDisableIRQStateEm
                0x0000000000000000        0x6 ym/minar-platform-mbed/source/minar-platform-mbed.a(mbed_platform.cpp.o)
 .text._ZN5minar8platform16getTimeOverflowsEv
                0x0000000000000000        0x4 ym/minar-platform-mbed/source/minar-platform-mbed.a(mbed_platform.cpp.o)
 .data          0x0000000000000000        0x0 ym/mbed-hal-k64f/source/mbed-hal-k64f.a(startup_MK64F12.S.obj)
 .bss           0x0000000000000000        0x0 ym/mbed-hal-k64f/source/mbed-hal-k64f.a(startup_MK64F12.S.obj)
 .text          0x0000000000000000        0x0 ym/mbed-hal-k64f/source/mbed-hal-k64f.a(fsl_clock_K64F12.c.o)
 .data          0x0000000000000000        0x0 ym/mbed-hal-k64f/source/mbed-hal-k64f.a(fsl_clock_K64F12.c.o)
 .bss           0x0000000000000000        0x0 ym/mbed-hal-k64f/source/mbed-hal-k64f.a(fsl_clock_K64F12.c.o)
 .text.CLOCK_SYS_GetDmaFreq
                0x0000000000000000       0x18 ym/mbed-hal-k64f/source/mbed-hal-k64f.a(fsl_clock_K64F12.c.o)
 .text.CLOCK_SYS_GetDmamuxFreq
                0x0000000000000000       0x18 ym/mbed-hal-k64f/source/mbed-hal-k64f.a(fsl_clock_K64F12.c.o)
 .text.CLOCK_SYS_GetPortFreq
                0x0000000000000000       0x18 ym/mbed-hal-k64f/source/mbed-hal-k64f.a(fsl_clock_K64F12.c.o)
 .text.CLOCK_SYS_GetMpuFreq
                0x0000000000000000       0x18 ym/mbed-hal-k64f/source/mbed-hal-k64f.a(fsl_clock_K64F12.c.o)
 .text.CLOCK_SYS_GetEwmFreq
                0x0000000000000000       0x18 ym/mbed-hal-k64f/source/mbed-hal-k64f.a(fsl_clock_K64F12.c.o)
 .text.CLOCK_SYS_GetFlexbusFreq
                0x0000000000000000       0x18 ym/mbed-hal-k64f/source/mbed-hal-k64f.a(fsl_clock_K64F12.c.o)
 .text.CLOCK_SYS_GetFtfFreq
                0x0000000000000000       0x18 ym/mbed-hal-k64f/source/mbed-hal-k64f.a(fsl_clock_K64F12.c.o)
 .text.CLOCK_SYS_GetCrcFreq
                0x0000000000000000       0x18 ym/mbed-hal-k64f/source/mbed-hal-k64f.a(fsl_clock_K64F12.c.o)
 .text.CLOCK_SYS_GetRngaFreq
                0x0000000000000000       0x18 ym/mbed-hal-k64f/source/mbed-hal-k64f.a(fsl_clock_K64F12.c.o)
 .text.CLOCK_SYS_GetAdcFreq
                0x0000000000000000       0x18 ym/mbed-hal-k64f/source/mbed-hal-k64f.a(fsl_clock_K64F12.c.o)
 .text.CLOCK_SYS_GetCmpFreq
                0x0000000000000000       0x18 ym/mbed-hal-k64f/source/mbed-hal-k64f.a(fsl_clock_K64F12.c.o)
 .text.CLOCK_SYS_GetVrefFreq
                0x0000000000000000       0x18 ym/mbed-hal-k64f/source/mbed-hal-k64f.a(fsl_clock_K64F12.c.o)
 .text.CLOCK_SYS_GetPdbFreq
                0x0000000000000000       0x18 ym/mbed-hal-k64f/source/mbed-hal-k64f.a(fsl_clock_K64F12.c.o)
 .text.CLOCK_SYS_GetFtmFreq
                0x0000000000000000       0x18 ym/mbed-hal-k64f/source/mbed-hal-k64f.a(fsl_clock_K64F12.c.o)
 .text.CLOCK_SYS_GetPitFreq
                0x0000000000000000       0x18 ym/mbed-hal-k64f/source/mbed-hal-k64f.a(fsl_clock_K64F12.c.o)
 .text.CLOCK_SYS_GetCmtFreq
                0x0000000000000000       0x18 ym/mbed-hal-k64f/source/mbed-hal-k64f.a(fsl_clock_K64F12.c.o)
 .text.CLOCK_SYS_GetEnetRmiiFreq
                0x0000000000000000       0x34 ym/mbed-hal-k64f/source/mbed-hal-k64f.a(fsl_clock_K64F12.c.o)
 .text.CLOCK_SYS_GetEnetTimeStampFreq
                0x0000000000000000       0x6c ym/mbed-hal-k64f/source/mbed-hal-k64f.a(fsl_clock_K64F12.c.o)
 .text.CLOCK_SYS_GetUsbFreq
                0x0000000000000000       0x88 ym/mbed-hal-k64f/source/mbed-hal-k64f.a(fsl_clock_K64F12.c.o)
 .text.CLOCK_SYS_GetUsbdcdFreq
                0x0000000000000000       0x18 ym/mbed-hal-k64f/source/mbed-hal-k64f.a(fsl_clock_K64F12.c.o)
 .text.CLOCK_SYS_GetSpiFreq
                0x0000000000000000       0x18 ym/mbed-hal-k64f/source/mbed-hal-k64f.a(fsl_clock_K64F12.c.o)
 .text.CLOCK_SYS_GetI2cFreq
                0x0000000000000000       0x18 ym/mbed-hal-k64f/source/mbed-hal-k64f.a(fsl_clock_K64F12.c.o)
 .text.CLOCK_SYS_GetSdhcFreq
                0x0000000000000000       0x6c ym/mbed-hal-k64f/source/mbed-hal-k64f.a(fsl_clock_K64F12.c.o)
 .text.CLOCK_SYS_GetSaiFreq
                0x0000000000000000       0x18 ym/mbed-hal-k64f/source/mbed-hal-k64f.a(fsl_clock_K64F12.c.o)
 .text.CLOCK_SYS_GetGpioFreq
                0x0000000000000000       0x18 ym/mbed-hal-k64f/source/mbed-hal-k64f.a(fsl_clock_K64F12.c.o)
 .text          0x0000000000000000        0x0 ym/mbed-hal-k64f/source/mbed-hal-k64f.a(fsl_sim_hal_K64F12.c.o)
 .data          0x0000000000000000        0x0 ym/mbed-hal-k64f/source/mbed-hal-k64f.a(fsl_sim_hal_K64F12.c.o)
 .bss           0x0000000000000000        0x0 ym/mbed-hal-k64f/source/mbed-hal-k64f.a(fsl_sim_hal_K64F12.c.o)
 .text.SIM_HAL_EnableDmaClock
                0x0000000000000000       0x1c ym/mbed-hal-k64f/source/mbed-hal-k64f.a(fsl_sim_hal_K64F12.c.o)
 .text.SIM_HAL_DisableDmaClock
                0x0000000000000000       0x1c ym/mbed-hal-k64f/source/mbed-hal-k64f.a(fsl_sim_hal_K64F12.c.o)
 .text.SIM_HAL_GetDmaGateCmd
                0x0000000000000000       0x20 ym/mbed-hal-k64f/source/mbed-hal-k64f.a(fsl_sim_hal_K64F12.c.o)
 .text.SIM_HAL_EnableDmamuxClock
                0x0000000000000000       0x1c ym/mbed-hal-k64f/source/mbed-hal-k64f.a(fsl_sim_hal_K64F12.c.o)
 .text.SIM_HAL_DisableDmamuxClock
                0x0000000000000000       0x1c ym/mbed-hal-k64f/source/mbed-hal-k64f.a(fsl_sim_hal_K64F12.c.o)
 .text.SIM_HAL_GetDmamuxGateCmd
                0x0000000000000000       0x20 ym/mbed-hal-k64f/source/mbed-hal-k64f.a(fsl_sim_hal_K64F12.c.o)
 .text.SIM_HAL_DisablePortClock
                0x0000000000000000       0x50 ym/mbed-hal-k64f/source/mbed-hal-k64f.a(fsl_sim_hal_K64F12.c.o)
 .text.SIM_HAL_GetPortGateCmd
                0x0000000000000000       0x58 ym/mbed-hal-k64f/source/mbed-hal-k64f.a(fsl_sim_hal_K64F12.c.o)
 .text.SIM_HAL_EnableMpuClock
                0x0000000000000000       0x1c ym/mbed-hal-k64f/source/mbed-hal-k64f.a(fsl_sim_hal_K64F12.c.o)
 .text.SIM_HAL_DisableMpuClock
                0x0000000000000000       0x1c ym/mbed-hal-k64f/source/mbed-hal-k64f.a(fsl_sim_hal_K64F12.c.o)
 .text.SIM_HAL_GetMpuGateCmd
                0x0000000000000000       0x20 ym/mbed-hal-k64f/source/mbed-hal-k64f.a(fsl_sim_hal_K64F12.c.o)
 .text.SIM_HAL_EnableEwmClock
                0x0000000000000000       0x1c ym/mbed-hal-k64f/source/mbed-hal-k64f.a(fsl_sim_hal_K64F12.c.o)
 .text.SIM_HAL_DisableEwmClock
                0x0000000000000000       0x1c ym/mbed-hal-k64f/source/mbed-hal-k64f.a(fsl_sim_hal_K64F12.c.o)
 .text.SIM_HAL_GetEwmGateCmd
                0x0000000000000000       0x20 ym/mbed-hal-k64f/source/mbed-hal-k64f.a(fsl_sim_hal_K64F12.c.o)
 .text.SIM_HAL_EnableFlexbusClock
                0x0000000000000000       0x1a ym/mbed-hal-k64f/source/mbed-hal-k64f.a(fsl_sim_hal_K64F12.c.o)
 .text.SIM_HAL_DisableFlexbusClock
                0x0000000000000000       0x1a ym/mbed-hal-k64f/source/mbed-hal-k64f.a(fsl_sim_hal_K64F12.c.o)
 .text.SIM_HAL_GetFlexbusGateCmd
                0x0000000000000000       0x1e ym/mbed-hal-k64f/source/mbed-hal-k64f.a(fsl_sim_hal_K64F12.c.o)
 .text.SIM_HAL_EnableFtfClock
                0x0000000000000000       0x1c ym/mbed-hal-k64f/source/mbed-hal-k64f.a(fsl_sim_hal_K64F12.c.o)
 .text.SIM_HAL_DisableFtfClock
                0x0000000000000000       0x1c ym/mbed-hal-k64f/source/mbed-hal-k64f.a(fsl_sim_hal_K64F12.c.o)
 .text.SIM_HAL_GetFtfGateCmd
                0x0000000000000000       0x20 ym/mbed-hal-k64f/source/mbed-hal-k64f.a(fsl_sim_hal_K64F12.c.o)
 .text.SIM_HAL_EnableCrcClock
                0x0000000000000000       0x1c ym/mbed-hal-k64f/source/mbed-hal-k64f.a(fsl_sim_hal_K64F12.c.o)
 .text.SIM_HAL_DisableCrcClock
                0x0000000000000000       0x1c ym/mbed-hal-k64f/source/mbed-hal-k64f.a(fsl_sim_hal_K64F12.c.o)
 .text.SIM_HAL_GetCrcGateCmd
                0x0000000000000000       0x20 ym/mbed-hal-k64f/source/mbed-hal-k64f.a(fsl_sim_hal_K64F12.c.o)
 .text.SIM_HAL_EnableRngaClock
                0x0000000000000000       0x1c ym/mbed-hal-k64f/source/mbed-hal-k64f.a(fsl_sim_hal_K64F12.c.o)
 .text.SIM_HAL_DisableRngaClock
                0x0000000000000000       0x1c ym/mbed-hal-k64f/source/mbed-hal-k64f.a(fsl_sim_hal_K64F12.c.o)
 .text.SIM_HAL_GetRngaGateCmd
                0x0000000000000000       0x20 ym/mbed-hal-k64f/source/mbed-hal-k64f.a(fsl_sim_hal_K64F12.c.o)
 .text.SIM_HAL_EnableAdcClock
                0x0000000000000000       0x30 ym/mbed-hal-k64f/source/mbed-hal-k64f.a(fsl_sim_hal_K64F12.c.o)
 .text.SIM_HAL_DisableAdcClock
                0x0000000000000000       0x30 ym/mbed-hal-k64f/source/mbed-hal-k64f.a(fsl_sim_hal_K64F12.c.o)
 .text.SIM_HAL_GetAdcGateCmd
                0x0000000000000000       0x34 ym/mbed-hal-k64f/source/mbed-hal-k64f.a(fsl_sim_hal_K64F12.c.o)
 .text.SIM_HAL_EnableCmpClock
                0x0000000000000000       0x1c ym/mbed-hal-k64f/source/mbed-hal-k64f.a(fsl_sim_hal_K64F12.c.o)
 .text.SIM_HAL_DisableCmpClock
                0x0000000000000000       0x1c ym/mbed-hal-k64f/source/mbed-hal-k64f.a(fsl_sim_hal_K64F12.c.o)
 .text.SIM_HAL_GetCmpGateCmd
                0x0000000000000000       0x20 ym/mbed-hal-k64f/source/mbed-hal-k64f.a(fsl_sim_hal_K64F12.c.o)
 .text.SIM_HAL_EnableDacClock
                0x0000000000000000       0x30 ym/mbed-hal-k64f/source/mbed-hal-k64f.a(fsl_sim_hal_K64F12.c.o)
 .text.SIM_HAL_DisableDacClock
                0x0000000000000000       0x30 ym/mbed-hal-k64f/source/mbed-hal-k64f.a(fsl_sim_hal_K64F12.c.o)
 .text.SIM_HAL_GetDacGateCmd
                0x0000000000000000       0x34 ym/mbed-hal-k64f/source/mbed-hal-k64f.a(fsl_sim_hal_K64F12.c.o)
 .text.SIM_HAL_EnableVrefClock
                0x0000000000000000       0x1c ym/mbed-hal-k64f/source/mbed-hal-k64f.a(fsl_sim_hal_K64F12.c.o)
 .text.SIM_HAL_DisableVrefClock
                0x0000000000000000       0x1c ym/mbed-hal-k64f/source/mbed-hal-k64f.a(fsl_sim_hal_K64F12.c.o)
 .text.SIM_HAL_GetVrefGateCmd
                0x0000000000000000       0x20 ym/mbed-hal-k64f/source/mbed-hal-k64f.a(fsl_sim_hal_K64F12.c.o)
 .text.SIM_HAL_EnableSaiClock
                0x0000000000000000       0x1c ym/mbed-hal-k64f/source/mbed-hal-k64f.a(fsl_sim_hal_K64F12.c.o)
 .text.SIM_HAL_DisableSaiClock
                0x0000000000000000       0x1c ym/mbed-hal-k64f/source/mbed-hal-k64f.a(fsl_sim_hal_K64F12.c.o)
 .text.SIM_HAL_GetSaiGateCmd
                0x0000000000000000       0x20 ym/mbed-hal-k64f/source/mbed-hal-k64f.a(fsl_sim_hal_K64F12.c.o)
 .text.SIM_HAL_EnablePdbClock
                0x0000000000000000       0x1c ym/mbed-hal-k64f/source/mbed-hal-k64f.a(fsl_sim_hal_K64F12.c.o)
 .text.SIM_HAL_DisablePdbClock
                0x0000000000000000       0x1c ym/mbed-hal-k64f/source/mbed-hal-k64f.a(fsl_sim_hal_K64F12.c.o)
 .text.SIM_HAL_GetPdbGateCmd
                0x0000000000000000       0x20 ym/mbed-hal-k64f/source/mbed-hal-k64f.a(fsl_sim_hal_K64F12.c.o)
 .text.SIM_HAL_EnableFtmClock
                0x0000000000000000       0x48 ym/mbed-hal-k64f/source/mbed-hal-k64f.a(fsl_sim_hal_K64F12.c.o)
 .text.SIM_HAL_DisableFtmClock
                0x0000000000000000       0x48 ym/mbed-hal-k64f/source/mbed-hal-k64f.a(fsl_sim_hal_K64F12.c.o)
 .text.SIM_HAL_GetFtmGateCmd
                0x0000000000000000       0x50 ym/mbed-hal-k64f/source/mbed-hal-k64f.a(fsl_sim_hal_K64F12.c.o)
 .text.SIM_HAL_DisablePitClock
                0x0000000000000000       0x1c ym/mbed-hal-k64f/source/mbed-hal-k64f.a(fsl_sim_hal_K64F12.c.o)
 .text.SIM_HAL_GetPitGateCmd
                0x0000000000000000       0x20 ym/mbed-hal-k64f/source/mbed-hal-k64f.a(fsl_sim_hal_K64F12.c.o)
 .text.SIM_HAL_DisableLptimerClock
                0x0000000000000000       0x1c ym/mbed-hal-k64f/source/mbed-hal-k64f.a(fsl_sim_hal_K64F12.c.o)
 .text.SIM_HAL_GetLptimerGateCmd
                0x0000000000000000       0x20 ym/mbed-hal-k64f/source/mbed-hal-k64f.a(fsl_sim_hal_K64F12.c.o)
 .text.SIM_HAL_EnableCmtClock
                0x0000000000000000       0x1c ym/mbed-hal-k64f/source/mbed-hal-k64f.a(fsl_sim_hal_K64F12.c.o)
 .text.SIM_HAL_DisableCmtClock
                0x0000000000000000       0x1c ym/mbed-hal-k64f/source/mbed-hal-k64f.a(fsl_sim_hal_K64F12.c.o)
 .text.SIM_HAL_GetCmtGateCmd
                0x0000000000000000       0x20 ym/mbed-hal-k64f/source/mbed-hal-k64f.a(fsl_sim_hal_K64F12.c.o)
 .text.SIM_HAL_DisableRtcClock
                0x0000000000000000       0x1c ym/mbed-hal-k64f/source/mbed-hal-k64f.a(fsl_sim_hal_K64F12.c.o)
 .text.SIM_HAL_GetRtcGateCmd
                0x0000000000000000       0x20 ym/mbed-hal-k64f/source/mbed-hal-k64f.a(fsl_sim_hal_K64F12.c.o)
 .text.SIM_HAL_EnableEnetClock
                0x0000000000000000       0x1c ym/mbed-hal-k64f/source/mbed-hal-k64f.a(fsl_sim_hal_K64F12.c.o)
 .text.SIM_HAL_DisableEnetClock
                0x0000000000000000       0x1c ym/mbed-hal-k64f/source/mbed-hal-k64f.a(fsl_sim_hal_K64F12.c.o)
 .text.SIM_HAL_GetEnetGateCmd
                0x0000000000000000       0x20 ym/mbed-hal-k64f/source/mbed-hal-k64f.a(fsl_sim_hal_K64F12.c.o)
 .text.SIM_HAL_EnableUsbClock
                0x0000000000000000       0x1c ym/mbed-hal-k64f/source/mbed-hal-k64f.a(fsl_sim_hal_K64F12.c.o)
 .text.SIM_HAL_DisableUsbClock
                0x0000000000000000       0x1c ym/mbed-hal-k64f/source/mbed-hal-k64f.a(fsl_sim_hal_K64F12.c.o)
 .text.SIM_HAL_GetUsbGateCmd
                0x0000000000000000       0x20 ym/mbed-hal-k64f/source/mbed-hal-k64f.a(fsl_sim_hal_K64F12.c.o)
 .text.SIM_HAL_EnableUsbdcdClock
                0x0000000000000000       0x1c ym/mbed-hal-k64f/source/mbed-hal-k64f.a(fsl_sim_hal_K64F12.c.o)
 .text.SIM_HAL_DisableUsbdcdClock
                0x0000000000000000       0x1c ym/mbed-hal-k64f/source/mbed-hal-k64f.a(fsl_sim_hal_K64F12.c.o)
 .text.SIM_HAL_GetUsbdcdGateCmd
                0x0000000000000000       0x20 ym/mbed-hal-k64f/source/mbed-hal-k64f.a(fsl_sim_hal_K64F12.c.o)
 .text.SIM_HAL_EnableFlexcanClock
                0x0000000000000000       0x1c ym/mbed-hal-k64f/source/mbed-hal-k64f.a(fsl_sim_hal_K64F12.c.o)
 .text.SIM_HAL_DisableFlexcanClock
                0x0000000000000000       0x1c ym/mbed-hal-k64f/source/mbed-hal-k64f.a(fsl_sim_hal_K64F12.c.o)
 .text.SIM_HAL_GetFlexcanGateCmd
                0x0000000000000000       0x20 ym/mbed-hal-k64f/source/mbed-hal-k64f.a(fsl_sim_hal_K64F12.c.o)
 .text.SIM_HAL_EnableSpiClock
                0x0000000000000000       0x3c ym/mbed-hal-k64f/source/mbed-hal-k64f.a(fsl_sim_hal_K64F12.c.o)
 .text.SIM_HAL_DisableSpiClock
                0x0000000000000000       0x3c ym/mbed-hal-k64f/source/mbed-hal-k64f.a(fsl_sim_hal_K64F12.c.o)
 .text.SIM_HAL_GetSpiGateCmd
                0x0000000000000000       0x40 ym/mbed-hal-k64f/source/mbed-hal-k64f.a(fsl_sim_hal_K64F12.c.o)
 .text.SIM_HAL_EnableI2cClock
                0x0000000000000000       0x3c ym/mbed-hal-k64f/source/mbed-hal-k64f.a(fsl_sim_hal_K64F12.c.o)
 .text.SIM_HAL_DisableI2cClock
                0x0000000000000000       0x3c ym/mbed-hal-k64f/source/mbed-hal-k64f.a(fsl_sim_hal_K64F12.c.o)
 .text.SIM_HAL_GetI2cGateCmd
                0x0000000000000000       0x40 ym/mbed-hal-k64f/source/mbed-hal-k64f.a(fsl_sim_hal_K64F12.c.o)
 .text.SIM_HAL_DisableUartClock
                0x0000000000000000       0x5c ym/mbed-hal-k64f/source/mbed-hal-k64f.a(fsl_sim_hal_K64F12.c.o)
 .text.SIM_HAL_GetUartGateCmd
                0x0000000000000000       0x64 ym/mbed-hal-k64f/source/mbed-hal-k64f.a(fsl_sim_hal_K64F12.c.o)
 .text.SIM_HAL_EnableSdhcClock
                0x0000000000000000       0x1c ym/mbed-hal-k64f/source/mbed-hal-k64f.a(fsl_sim_hal_K64F12.c.o)
 .text.SIM_HAL_DisableSdhcClock
                0x0000000000000000       0x1c ym/mbed-hal-k64f/source/mbed-hal-k64f.a(fsl_sim_hal_K64F12.c.o)
 .text.SIM_HAL_GetSdhcGateCmd
                0x0000000000000000       0x20 ym/mbed-hal-k64f/source/mbed-hal-k64f.a(fsl_sim_hal_K64F12.c.o)
 .text          0x0000000000000000        0x0 ym/mbed-hal-frdm-k64f/source/mbed-hal-frdm-k64f.a(init_api.c.o)
 .data          0x0000000000000000        0x0 ym/mbed-hal-frdm-k64f/source/mbed-hal-frdm-k64f.a(init_api.c.o)
 .bss           0x0000000000000000        0x0 ym/mbed-hal-frdm-k64f/source/mbed-hal-frdm-k64f.a(init_api.c.o)
 .text          0x0000000000000000        0x0 ym/mbed-hal-frdm-k64f/source/mbed-hal-frdm-k64f.a(PeripheralPins.c.o)
 .data          0x0000000000000000        0x0 ym/mbed-hal-frdm-k64f/source/mbed-hal-frdm-k64f.a(PeripheralPins.c.o)
 .bss           0x0000000000000000        0x0 ym/mbed-hal-frdm-k64f/source/mbed-hal-frdm-k64f.a(PeripheralPins.c.o)
 .rodata.PinMap_SPI_MISO
                0x0000000000000000       0x6c ym/mbed-hal-frdm-k64f/source/mbed-hal-frdm-k64f.a(PeripheralPins.c.o)
 .rodata.PinMap_SPI_SCLK
                0x0000000000000000       0x60 ym/mbed-hal-frdm-k64f/source/mbed-hal-frdm-k64f.a(PeripheralPins.c.o)
 .rodata.PinMap_RTC
                0x0000000000000000        0xc ym/mbed-hal-frdm-k64f/source/mbed-hal-frdm-k64f.a(PeripheralPins.c.o)
 .rodata.PinMap_I2C_SDA
                0x0000000000000000       0x60 ym/mbed-hal-frdm-k64f/source/mbed-hal-frdm-k64f.a(PeripheralPins.c.o)
 .rodata.PinMap_PWM
                0x0000000000000000      0x1d4 ym/mbed-hal-frdm-k64f/source/mbed-hal-frdm-k64f.a(PeripheralPins.c.o)
 .rodata.PinMap_I2C_SCL
                0x0000000000000000       0x6c ym/mbed-hal-frdm-k64f/source/mbed-hal-frdm-k64f.a(PeripheralPins.c.o)
 .rodata.PinMap_SPI_MOSI
                0x0000000000000000       0x6c ym/mbed-hal-frdm-k64f/source/mbed-hal-frdm-k64f.a(PeripheralPins.c.o)
 .rodata.PinMap_DAC
                0x0000000000000000       0x18 ym/mbed-hal-frdm-k64f/source/mbed-hal-frdm-k64f.a(PeripheralPins.c.o)
 .rodata.PinMap_ADC
                0x0000000000000000       0xd8 ym/mbed-hal-frdm-k64f/source/mbed-hal-frdm-k64f.a(PeripheralPins.c.o)
 .rodata.PinMap_SPI_SSEL
                0x0000000000000000       0x60 ym/mbed-hal-frdm-k64f/source/mbed-hal-frdm-k64f.a(PeripheralPins.c.o)
 .text          0x0000000000000000        0x0 ym/mbed-drivers/source/mbed-drivers.a(pinmap_common.c.o)
 .data          0x0000000000000000        0x0 ym/mbed-drivers/source/mbed-drivers.a(pinmap_common.c.o)
 .bss           0x0000000000000000        0x0 ym/mbed-drivers/source/mbed-drivers.a(pinmap_common.c.o)
 .text.pinmap_find_function
                0x0000000000000000       0x16 ym/mbed-drivers/source/mbed-drivers.a(pinmap_common.c.o)
 .text.pinmap_function
                0x0000000000000000       0x20 ym/mbed-drivers/source/mbed-drivers.a(pinmap_common.c.o)
 .text          0x0000000000000000        0x0 ym/mbed-drivers/source/mbed-drivers.a(us_ticker_api.c.o)
 .data          0x0000000000000000        0x0 ym/mbed-drivers/source/mbed-drivers.a(us_ticker_api.c.o)
 .bss           0x0000000000000000        0x0 ym/mbed-drivers/source/mbed-drivers.a(us_ticker_api.c.o)
 .text.get_us_ticker_data
                0x0000000000000000        0x8 ym/mbed-drivers/source/mbed-drivers.a(us_ticker_api.c.o)
 .text          0x0000000000000000        0x0 ym/mbed-drivers/source/mbed-drivers.a(ticker_api.c.o)
 .data          0x0000000000000000        0x0 ym/mbed-drivers/source/mbed-drivers.a(ticker_api.c.o)
 .bss           0x0000000000000000        0x0 ym/mbed-drivers/source/mbed-drivers.a(ticker_api.c.o)
 .text.ticker_set_handler
                0x0000000000000000       0x12 ym/mbed-drivers/source/mbed-drivers.a(ticker_api.c.o)
 .text.ticker_insert_event
                0x0000000000000000       0x36 ym/mbed-drivers/source/mbed-drivers.a(ticker_api.c.o)
 .text.ticker_remove_event
                0x0000000000000000       0x34 ym/mbed-drivers/source/mbed-drivers.a(ticker_api.c.o)
 .text.ticker_read
                0x0000000000000000        0x6 ym/mbed-drivers/source/mbed-drivers.a(ticker_api.c.o)
 .text          0x0000000000000000        0x0 ym/mbed-hal-ksdk-mcu/source/mbed-hal-ksdk-mcu.a(sleep.c.o)
 .data          0x0000000000000000        0x0 ym/mbed-hal-ksdk-mcu/source/mbed-hal-ksdk-mcu.a(sleep.c.o)
 .bss           0x0000000000000000        0x0 ym/mbed-hal-ksdk-mcu/source/mbed-hal-ksdk-mcu.a(sleep.c.o)
 .text          0x0000000000000000        0x0 ym/mbed-hal-ksdk-mcu/source/mbed-hal-ksdk-mcu.a(fsl_smc_hal.c.o)
 .data          0x0000000000000000        0x0 ym/mbed-hal-ksdk-mcu/source/mbed-hal-ksdk-mcu.a(fsl_smc_hal.c.o)
 .bss           0x0000000000000000        0x0 ym/mbed-hal-ksdk-mcu/source/mbed-hal-ksdk-mcu.a(fsl_smc_hal.c.o)
 .text.SMC_HAL_SetProtectionMode
                0x0000000000000000       0x40 ym/mbed-hal-ksdk-mcu/source/mbed-hal-ksdk-mcu.a(fsl_smc_hal.c.o)
 .text.SMC_HAL_GetProtectionMode
                0x0000000000000000       0x42 ym/mbed-hal-ksdk-mcu/source/mbed-hal-ksdk-mcu.a(fsl_smc_hal.c.o)
 .text.SMC_HAL_SetRunMode
                0x0000000000000000       0x2e ym/mbed-hal-ksdk-mcu/source/mbed-hal-ksdk-mcu.a(fsl_smc_hal.c.o)
 .text.SMC_HAL_GetRunMode
                0x0000000000000000       0x14 ym/mbed-hal-ksdk-mcu/source/mbed-hal-ksdk-mcu.a(fsl_smc_hal.c.o)
 .text.SMC_HAL_SetStopMode
                0x0000000000000000       0x2c ym/mbed-hal-ksdk-mcu/source/mbed-hal-ksdk-mcu.a(fsl_smc_hal.c.o)
 .text.SMC_HAL_GetStopMode
                0x0000000000000000       0x14 ym/mbed-hal-ksdk-mcu/source/mbed-hal-ksdk-mcu.a(fsl_smc_hal.c.o)
 .text.SMC_HAL_SetStopSubMode
                0x0000000000000000       0x2c ym/mbed-hal-ksdk-mcu/source/mbed-hal-ksdk-mcu.a(fsl_smc_hal.c.o)
 .text.SMC_HAL_GetStopSubMode
                0x0000000000000000       0x14 ym/mbed-hal-ksdk-mcu/source/mbed-hal-ksdk-mcu.a(fsl_smc_hal.c.o)
 .text.SMC_HAL_SetPorMode
                0x0000000000000000       0x16 ym/mbed-hal-ksdk-mcu/source/mbed-hal-ksdk-mcu.a(fsl_smc_hal.c.o)
 .text.SMC_HAL_GetPorMode
                0x0000000000000000       0x18 ym/mbed-hal-ksdk-mcu/source/mbed-hal-ksdk-mcu.a(fsl_smc_hal.c.o)
 .text.SMC_HAL_SetLpwuiMode
                0x0000000000000000       0x16 ym/mbed-hal-ksdk-mcu/source/mbed-hal-ksdk-mcu.a(fsl_smc_hal.c.o)
 .text.SMC_HAL_GetLpwuiMode
                0x0000000000000000       0x18 ym/mbed-hal-ksdk-mcu/source/mbed-hal-ksdk-mcu.a(fsl_smc_hal.c.o)
 .text.SMC_HAL_GetStat
                0x0000000000000000       0x14 ym/mbed-hal-ksdk-mcu/source/mbed-hal-ksdk-mcu.a(fsl_smc_hal.c.o)
 .text.SMC_HAL_SetMode
                0x0000000000000000       0xd8 ym/mbed-hal-ksdk-mcu/source/mbed-hal-ksdk-mcu.a(fsl_smc_hal.c.o)
 .text          0x0000000000000000        0x0 ym/mbed-hal-ksdk-mcu/source/mbed-hal-ksdk-mcu.a(lp_ticker.c.o)
 .data          0x0000000000000000        0x0 ym/mbed-hal-ksdk-mcu/source/mbed-hal-ksdk-mcu.a(lp_ticker.c.o)
 .bss           0x0000000000000000        0x0 ym/mbed-hal-ksdk-mcu/source/mbed-hal-ksdk-mcu.a(lp_ticker.c.o)
 .text.lp_ticker_get_overflows_counter
                0x0000000000000000       0x20 ym/mbed-hal-ksdk-mcu/source/mbed-hal-ksdk-mcu.a(lp_ticker.c.o)
 .text          0x0000000000000000        0x0 ym/mbed-hal-ksdk-mcu/source/mbed-hal-ksdk-mcu.a(fsl_rtc_hal.c.o)
 .data          0x0000000000000000        0x0 ym/mbed-hal-ksdk-mcu/source/mbed-hal-ksdk-mcu.a(fsl_rtc_hal.c.o)
 .bss           0x0000000000000000        0x0 ym/mbed-hal-ksdk-mcu/source/mbed-hal-ksdk-mcu.a(fsl_rtc_hal.c.o)
 .text.RTC_HAL_EnableCounter
                0x0000000000000000       0x18 ym/mbed-hal-ksdk-mcu/source/mbed-hal-ksdk-mcu.a(fsl_rtc_hal.c.o)
 .text.RTC_HAL_ConvertSecsToDatetime
                0x0000000000000000       0x88 ym/mbed-hal-ksdk-mcu/source/mbed-hal-ksdk-mcu.a(fsl_rtc_hal.c.o)
 .text.RTC_HAL_IsDatetimeCorrectFormat
                0x0000000000000000       0x50 ym/mbed-hal-ksdk-mcu/source/mbed-hal-ksdk-mcu.a(fsl_rtc_hal.c.o)
 .text.RTC_HAL_ConvertDatetimeToSecs
                0x0000000000000000       0x5c ym/mbed-hal-ksdk-mcu/source/mbed-hal-ksdk-mcu.a(fsl_rtc_hal.c.o)
 .text.RTC_HAL_Disable
                0x0000000000000000       0x16 ym/mbed-hal-ksdk-mcu/source/mbed-hal-ksdk-mcu.a(fsl_rtc_hal.c.o)
 .text.RTC_HAL_SetDatetimeInsecs
                0x0000000000000000       0x20 ym/mbed-hal-ksdk-mcu/source/mbed-hal-ksdk-mcu.a(fsl_rtc_hal.c.o)
 .text.RTC_HAL_SetDatetime
                0x0000000000000000       0x18 ym/mbed-hal-ksdk-mcu/source/mbed-hal-ksdk-mcu.a(fsl_rtc_hal.c.o)
 .text.RTC_HAL_GetDatetime
                0x0000000000000000       0x14 ym/mbed-hal-ksdk-mcu/source/mbed-hal-ksdk-mcu.a(fsl_rtc_hal.c.o)
 .text.RTC_HAL_GetDatetimeInSecs
                0x0000000000000000        0x6 ym/mbed-hal-ksdk-mcu/source/mbed-hal-ksdk-mcu.a(fsl_rtc_hal.c.o)
 .text.RTC_HAL_SetAlarm
                0x0000000000000000       0x2e ym/mbed-hal-ksdk-mcu/source/mbed-hal-ksdk-mcu.a(fsl_rtc_hal.c.o)
 .text.RTC_HAL_GetAlarm
                0x0000000000000000       0x14 ym/mbed-hal-ksdk-mcu/source/mbed-hal-ksdk-mcu.a(fsl_rtc_hal.c.o)
 .rodata.MONTH_DAYS
                0x0000000000000000       0x1a ym/mbed-hal-ksdk-mcu/source/mbed-hal-ksdk-mcu.a(fsl_rtc_hal.c.o)
 .rodata.LY     0x0000000000000000        0xd ym/mbed-hal-ksdk-mcu/source/mbed-hal-ksdk-mcu.a(fsl_rtc_hal.c.o)
 .rodata.ULY    0x0000000000000000        0xd ym/mbed-hal-ksdk-mcu/source/mbed-hal-ksdk-mcu.a(fsl_rtc_hal.c.o)
 .text          0x0000000000000000        0x0 ym/ualloc/source/ualloc.a(ualloc.c.o)
 .data          0x0000000000000000        0x0 ym/ualloc/source/ualloc.a(ualloc.c.o)
 .bss           0x0000000000000000        0x0 ym/ualloc/source/ualloc.a(ualloc.c.o)
 .text.mbed_urealloc
                0x0000000000000000       0x24 ym/ualloc/source/ualloc.a(ualloc.c.o)
 .rodata.ua_chars
                0x0000000000000000        0x7 ym/ualloc/source/ualloc.a(ualloc.c.o)
 .rodata.ualloc_debug_level
                0x0000000000000000        0x1 ym/ualloc/source/ualloc.a(ualloc.c.o)
 .text          0x0000000000000000        0x0 ym/dlmalloc/source/dlmalloc.a(dlmalloc.c.o)
 .data          0x0000000000000000        0x0 ym/dlmalloc/source/dlmalloc.a(dlmalloc.c.o)
 .bss           0x0000000000000000        0x0 ym/dlmalloc/source/dlmalloc.a(dlmalloc.c.o)
 .text.dispose_chunk.constprop.17
                0x0000000000000000      0x3e4 ym/dlmalloc/source/dlmalloc.a(dlmalloc.c.o)
 .text.try_realloc_chunk.isra.3.constprop.6
                0x0000000000000000      0x2cc ym/dlmalloc/source/dlmalloc.a(dlmalloc.c.o)
 .text.ialloc.isra.4
                0x0000000000000000      0x124 ym/dlmalloc/source/dlmalloc.a(dlmalloc.c.o)
 .text.internal_memalign.constprop.9
                0x0000000000000000       0xfa ym/dlmalloc/source/dlmalloc.a(dlmalloc.c.o)
 .text.dlrealloc
                0x0000000000000000       0x72 ym/dlmalloc/source/dlmalloc.a(dlmalloc.c.o)
 .text.dlrealloc_in_place
                0x0000000000000000       0x38 ym/dlmalloc/source/dlmalloc.a(dlmalloc.c.o)
 .text.dlmemalign
                0x0000000000000000        0xe ym/dlmalloc/source/dlmalloc.a(dlmalloc.c.o)
 .text.dlposix_memalign
                0x0000000000000000       0x48 ym/dlmalloc/source/dlmalloc.a(dlmalloc.c.o)
 .text.dlvalloc
                0x0000000000000000       0x20 ym/dlmalloc/source/dlmalloc.a(dlmalloc.c.o)
 .text.dlpvalloc
                0x0000000000000000       0x28 ym/dlmalloc/source/dlmalloc.a(dlmalloc.c.o)
 .text.dlindependent_calloc
                0x0000000000000000       0x18 ym/dlmalloc/source/dlmalloc.a(dlmalloc.c.o)
 .text.dlindependent_comalloc
                0x0000000000000000        0x8 ym/dlmalloc/source/dlmalloc.a(dlmalloc.c.o)
 .text.dlbulk_free
                0x0000000000000000       0x80 ym/dlmalloc/source/dlmalloc.a(dlmalloc.c.o)
 .text.dlmalloc_trim
                0x0000000000000000       0xcc ym/dlmalloc/source/dlmalloc.a(dlmalloc.c.o)
 .text.dlmalloc_footprint
                0x0000000000000000        0xc ym/dlmalloc/source/dlmalloc.a(dlmalloc.c.o)
 .text.dlmalloc_max_footprint
                0x0000000000000000        0xc ym/dlmalloc/source/dlmalloc.a(dlmalloc.c.o)
 .text.dlmalloc_footprint_limit
                0x0000000000000000       0x14 ym/dlmalloc/source/dlmalloc.a(dlmalloc.c.o)
 .text.dlmalloc_set_footprint_limit
                0x0000000000000000       0x28 ym/dlmalloc/source/dlmalloc.a(dlmalloc.c.o)
 .text.dlmallopt
                0x0000000000000000       0x50 ym/dlmalloc/source/dlmalloc.a(dlmalloc.c.o)
 .text.dlmalloc_usable_size
                0x0000000000000000       0x22 ym/dlmalloc/source/dlmalloc.a(dlmalloc.c.o)
 .text          0x0000000000000000        0x0 ym/cmsis-core-k64f/source/cmsis-core-k64f.a(system_MK64F12.c.o)
 .data          0x0000000000000000        0x0 ym/cmsis-core-k64f/source/cmsis-core-k64f.a(system_MK64F12.c.o)
 .bss           0x0000000000000000        0x0 ym/cmsis-core-k64f/source/cmsis-core-k64f.a(system_MK64F12.c.o)
 .text.SystemCoreClockUpdate
                0x0000000000000000      0x16c ym/cmsis-core-k64f/source/cmsis-core-k64f.a(system_MK64F12.c.o)
 .data.SystemCoreClock
                0x0000000000000000        0x4 ym/cmsis-core-k64f/source/cmsis-core-k64f.a(system_MK64F12.c.o)
 .text          0x0000000000000000        0x0 ym/uvisor-lib/source/uvisor-lib.a(uvisor.o)
 .data          0x0000000000000000        0x0 ym/uvisor-lib/source/uvisor-lib.a(uvisor.o)
 .text          0x0000000000000000        0x0 ym/uvisor-lib/source/uvisor-lib.a(interrupts.cpp.o)
 .data          0x0000000000000000        0x0 ym/uvisor-lib/source/uvisor-lib.a(interrupts.cpp.o)
 .bss           0x0000000000000000        0x0 ym/uvisor-lib/source/uvisor-lib.a(interrupts.cpp.o)
 .text.vIRQ_GetVector
                0x0000000000000000       0x14 ym/uvisor-lib/source/uvisor-lib.a(interrupts.cpp.o)
 .text.vIRQ_DisableIRQ
                0x0000000000000000       0x2c ym/uvisor-lib/source/uvisor-lib.a(interrupts.cpp.o)
 .text.vIRQ_SetPendingIRQ
                0x0000000000000000       0x2c ym/uvisor-lib/source/uvisor-lib.a(interrupts.cpp.o)
 .text.vIRQ_GetPendingIRQ
                0x0000000000000000       0x30 ym/uvisor-lib/source/uvisor-lib.a(interrupts.cpp.o)
 .text.vIRQ_SetPriority
                0x0000000000000000       0x40 ym/uvisor-lib/source/uvisor-lib.a(interrupts.cpp.o)
 .text.vIRQ_GetPriority
                0x0000000000000000       0x34 ym/uvisor-lib/source/uvisor-lib.a(interrupts.cpp.o)
 .text.vIRQ_GetLevel
                0x0000000000000000       0x58 ym/uvisor-lib/source/uvisor-lib.a(interrupts.cpp.o)
 .text          0x0000000000000000        0x0 /usr/local/Cellar/arm-none-eabi-gcc/4.9-2015-q2-update/bin/../lib/gcc/arm-none-eabi/4.9.3/../../../../arm-none-eabi/lib/armv7e-m/libstdc++_nano.a(atexit_arm.o)
 .data          0x0000000000000000        0x0 /usr/local/Cellar/arm-none-eabi-gcc/4.9-2015-q2-update/bin/../lib/gcc/arm-none-eabi/4.9.3/../../../../arm-none-eabi/lib/armv7e-m/libstdc++_nano.a(atexit_arm.o)
 .bss           0x0000000000000000        0x0 /usr/local/Cellar/arm-none-eabi-gcc/4.9-2015-q2-update/bin/../lib/gcc/arm-none-eabi/4.9.3/../../../../arm-none-eabi/lib/armv7e-m/libstdc++_nano.a(atexit_arm.o)
 .text          0x0000000000000000        0x0 /usr/local/Cellar/arm-none-eabi-gcc/4.9-2015-q2-update/bin/../lib/gcc/arm-none-eabi/4.9.3/../../../../arm-none-eabi/lib/armv7e-m/libstdc++_nano.a(del_op.o)
 .data          0x0000000000000000        0x0 /usr/local/Cellar/arm-none-eabi-gcc/4.9-2015-q2-update/bin/../lib/gcc/arm-none-eabi/4.9.3/../../../../arm-none-eabi/lib/armv7e-m/libstdc++_nano.a(del_op.o)
 .bss           0x0000000000000000        0x0 /usr/local/Cellar/arm-none-eabi-gcc/4.9-2015-q2-update/bin/../lib/gcc/arm-none-eabi/4.9.3/../../../../arm-none-eabi/lib/armv7e-m/libstdc++_nano.a(del_op.o)
 .text          0x0000000000000000        0x0 /usr/local/Cellar/arm-none-eabi-gcc/4.9-2015-q2-update/bin/../lib/gcc/arm-none-eabi/4.9.3/../../../../arm-none-eabi/lib/armv7e-m/libstdc++_nano.a(del_opv.o)
 .data          0x0000000000000000        0x0 /usr/local/Cellar/arm-none-eabi-gcc/4.9-2015-q2-update/bin/../lib/gcc/arm-none-eabi/4.9.3/../../../../arm-none-eabi/lib/armv7e-m/libstdc++_nano.a(del_opv.o)
 .bss           0x0000000000000000        0x0 /usr/local/Cellar/arm-none-eabi-gcc/4.9-2015-q2-update/bin/../lib/gcc/arm-none-eabi/4.9.3/../../../../arm-none-eabi/lib/armv7e-m/libstdc++_nano.a(del_opv.o)
 .text          0x0000000000000000        0x0 /usr/local/Cellar/arm-none-eabi-gcc/4.9-2015-q2-update/bin/../lib/gcc/arm-none-eabi/4.9.3/../../../../arm-none-eabi/lib/armv7e-m/libstdc++_nano.a(new_op.o)
 .data          0x0000000000000000        0x0 /usr/local/Cellar/arm-none-eabi-gcc/4.9-2015-q2-update/bin/../lib/gcc/arm-none-eabi/4.9.3/../../../../arm-none-eabi/lib/armv7e-m/libstdc++_nano.a(new_op.o)
 .bss           0x0000000000000000        0x0 /usr/local/Cellar/arm-none-eabi-gcc/4.9-2015-q2-update/bin/../lib/gcc/arm-none-eabi/4.9.3/../../../../arm-none-eabi/lib/armv7e-m/libstdc++_nano.a(new_op.o)
 .text          0x0000000000000000        0x0 /usr/local/Cellar/arm-none-eabi-gcc/4.9-2015-q2-update/bin/../lib/gcc/arm-none-eabi/4.9.3/../../../../arm-none-eabi/lib/armv7e-m/libstdc++_nano.a(new_opv.o)
 .data          0x0000000000000000        0x0 /usr/local/Cellar/arm-none-eabi-gcc/4.9-2015-q2-update/bin/../lib/gcc/arm-none-eabi/4.9.3/../../../../arm-none-eabi/lib/armv7e-m/libstdc++_nano.a(new_opv.o)
 .bss           0x0000000000000000        0x0 /usr/local/Cellar/arm-none-eabi-gcc/4.9-2015-q2-update/bin/../lib/gcc/arm-none-eabi/4.9.3/../../../../arm-none-eabi/lib/armv7e-m/libstdc++_nano.a(new_opv.o)
 .text          0x0000000000000000        0x0 /usr/local/Cellar/arm-none-eabi-gcc/4.9-2015-q2-update/bin/../lib/gcc/arm-none-eabi/4.9.3/../../../../arm-none-eabi/lib/armv7e-m/libstdc++_nano.a(new_handler.o)
 .data          0x0000000000000000        0x0 /usr/local/Cellar/arm-none-eabi-gcc/4.9-2015-q2-update/bin/../lib/gcc/arm-none-eabi/4.9.3/../../../../arm-none-eabi/lib/armv7e-m/libstdc++_nano.a(new_handler.o)
 .bss           0x0000000000000000        0x0 /usr/local/Cellar/arm-none-eabi-gcc/4.9-2015-q2-update/bin/../lib/gcc/arm-none-eabi/4.9.3/../../../../arm-none-eabi/lib/armv7e-m/libstdc++_nano.a(new_handler.o)
 .text._ZSt15set_new_handlerPFvvE
                0x0000000000000000       0x20 /usr/local/Cellar/arm-none-eabi-gcc/4.9-2015-q2-update/bin/../lib/gcc/arm-none-eabi/4.9.3/../../../../arm-none-eabi/lib/armv7e-m/libstdc++_nano.a(new_handler.o)
 .rodata._ZSt7nothrow
                0x0000000000000000        0x1 /usr/local/Cellar/arm-none-eabi-gcc/4.9-2015-q2-update/bin/../lib/gcc/arm-none-eabi/4.9.3/../../../../arm-none-eabi/lib/armv7e-m/libstdc++_nano.a(new_handler.o)
 .data          0x0000000000000000        0x0 /usr/local/Cellar/arm-none-eabi-gcc/4.9-2015-q2-update/bin/../lib/gcc/arm-none-eabi/4.9.3/armv7e-m/libgcc.a(_arm_addsubdf3.o)
 .bss           0x0000000000000000        0x0 /usr/local/Cellar/arm-none-eabi-gcc/4.9-2015-q2-update/bin/../lib/gcc/arm-none-eabi/4.9.3/armv7e-m/libgcc.a(_arm_addsubdf3.o)
 .data          0x0000000000000000        0x0 /usr/local/Cellar/arm-none-eabi-gcc/4.9-2015-q2-update/bin/../lib/gcc/arm-none-eabi/4.9.3/armv7e-m/libgcc.a(_arm_truncdfsf2.o)
 .bss           0x0000000000000000        0x0 /usr/local/Cellar/arm-none-eabi-gcc/4.9-2015-q2-update/bin/../lib/gcc/arm-none-eabi/4.9.3/armv7e-m/libgcc.a(_arm_truncdfsf2.o)
 .data          0x0000000000000000        0x0 /usr/local/Cellar/arm-none-eabi-gcc/4.9-2015-q2-update/bin/../lib/gcc/arm-none-eabi/4.9.3/armv7e-m/libgcc.a(_arm_addsubsf3.o)
 .bss           0x0000000000000000        0x0 /usr/local/Cellar/arm-none-eabi-gcc/4.9-2015-q2-update/bin/../lib/gcc/arm-none-eabi/4.9.3/armv7e-m/libgcc.a(_arm_addsubsf3.o)
 .data          0x0000000000000000        0x0 /usr/local/Cellar/arm-none-eabi-gcc/4.9-2015-q2-update/bin/../lib/gcc/arm-none-eabi/4.9.3/armv7e-m/libgcc.a(_arm_muldivsf3.o)
 .bss           0x0000000000000000        0x0 /usr/local/Cellar/arm-none-eabi-gcc/4.9-2015-q2-update/bin/../lib/gcc/arm-none-eabi/4.9.3/armv7e-m/libgcc.a(_arm_muldivsf3.o)
 .data          0x0000000000000000        0x0 /usr/local/Cellar/arm-none-eabi-gcc/4.9-2015-q2-update/bin/../lib/gcc/arm-none-eabi/4.9.3/armv7e-m/libgcc.a(_arm_fixsfsi.o)
 .bss           0x0000000000000000        0x0 /usr/local/Cellar/arm-none-eabi-gcc/4.9-2015-q2-update/bin/../lib/gcc/arm-none-eabi/4.9.3/armv7e-m/libgcc.a(_arm_fixsfsi.o)
 .text          0x0000000000000000       0x30 /usr/local/Cellar/arm-none-eabi-gcc/4.9-2015-q2-update/bin/../lib/gcc/arm-none-eabi/4.9.3/armv7e-m/libgcc.a(_aeabi_uldivmod.o)
 .data          0x0000000000000000        0x0 /usr/local/Cellar/arm-none-eabi-gcc/4.9-2015-q2-update/bin/../lib/gcc/arm-none-eabi/4.9.3/armv7e-m/libgcc.a(_aeabi_uldivmod.o)
 .bss           0x0000000000000000        0x0 /usr/local/Cellar/arm-none-eabi-gcc/4.9-2015-q2-update/bin/../lib/gcc/arm-none-eabi/4.9.3/armv7e-m/libgcc.a(_aeabi_uldivmod.o)
 .debug_frame   0x0000000000000000       0x28 /usr/local/Cellar/arm-none-eabi-gcc/4.9-2015-q2-update/bin/../lib/gcc/arm-none-eabi/4.9.3/armv7e-m/libgcc.a(_aeabi_uldivmod.o)
 .ARM.attributes
                0x0000000000000000       0x1e /usr/local/Cellar/arm-none-eabi-gcc/4.9-2015-q2-update/bin/../lib/gcc/arm-none-eabi/4.9.3/armv7e-m/libgcc.a(_aeabi_uldivmod.o)
 .text          0x0000000000000000       0x60 /usr/local/Cellar/arm-none-eabi-gcc/4.9-2015-q2-update/bin/../lib/gcc/arm-none-eabi/4.9.3/armv7e-m/libgcc.a(bpabi.o)
 .data          0x0000000000000000        0x0 /usr/local/Cellar/arm-none-eabi-gcc/4.9-2015-q2-update/bin/../lib/gcc/arm-none-eabi/4.9.3/armv7e-m/libgcc.a(bpabi.o)
 .bss           0x0000000000000000        0x0 /usr/local/Cellar/arm-none-eabi-gcc/4.9-2015-q2-update/bin/../lib/gcc/arm-none-eabi/4.9.3/armv7e-m/libgcc.a(bpabi.o)
 .debug_frame   0x0000000000000000       0x50 /usr/local/Cellar/arm-none-eabi-gcc/4.9-2015-q2-update/bin/../lib/gcc/arm-none-eabi/4.9.3/armv7e-m/libgcc.a(bpabi.o)
 .ARM.attributes
                0x0000000000000000       0x2e /usr/local/Cellar/arm-none-eabi-gcc/4.9-2015-q2-update/bin/../lib/gcc/arm-none-eabi/4.9.3/armv7e-m/libgcc.a(bpabi.o)
 .text          0x0000000000000000        0x4 /usr/local/Cellar/arm-none-eabi-gcc/4.9-2015-q2-update/bin/../lib/gcc/arm-none-eabi/4.9.3/armv7e-m/libgcc.a(_dvmd_tls.o)
 .data          0x0000000000000000        0x0 /usr/local/Cellar/arm-none-eabi-gcc/4.9-2015-q2-update/bin/../lib/gcc/arm-none-eabi/4.9.3/armv7e-m/libgcc.a(_dvmd_tls.o)
 .bss           0x0000000000000000        0x0 /usr/local/Cellar/arm-none-eabi-gcc/4.9-2015-q2-update/bin/../lib/gcc/arm-none-eabi/4.9.3/armv7e-m/libgcc.a(_dvmd_tls.o)
 .ARM.attributes
                0x0000000000000000       0x1e /usr/local/Cellar/arm-none-eabi-gcc/4.9-2015-q2-update/bin/../lib/gcc/arm-none-eabi/4.9.3/armv7e-m/libgcc.a(_dvmd_tls.o)
 .text          0x0000000000000000      0x29c /usr/local/Cellar/arm-none-eabi-gcc/4.9-2015-q2-update/bin/../lib/gcc/arm-none-eabi/4.9.3/armv7e-m/libgcc.a(_divdi3.o)
 .data          0x0000000000000000        0x0 /usr/local/Cellar/arm-none-eabi-gcc/4.9-2015-q2-update/bin/../lib/gcc/arm-none-eabi/4.9.3/armv7e-m/libgcc.a(_divdi3.o)
 .bss           0x0000000000000000        0x0 /usr/local/Cellar/arm-none-eabi-gcc/4.9-2015-q2-update/bin/../lib/gcc/arm-none-eabi/4.9.3/armv7e-m/libgcc.a(_divdi3.o)
 .ARM.extab     0x0000000000000000        0x0 /usr/local/Cellar/arm-none-eabi-gcc/4.9-2015-q2-update/bin/../lib/gcc/arm-none-eabi/4.9.3/armv7e-m/libgcc.a(_divdi3.o)
 .ARM.exidx     0x0000000000000000        0x8 /usr/local/Cellar/arm-none-eabi-gcc/4.9-2015-q2-update/bin/../lib/gcc/arm-none-eabi/4.9.3/armv7e-m/libgcc.a(_divdi3.o)
 .debug_frame   0x0000000000000000       0x34 /usr/local/Cellar/arm-none-eabi-gcc/4.9-2015-q2-update/bin/../lib/gcc/arm-none-eabi/4.9.3/armv7e-m/libgcc.a(_divdi3.o)
 .ARM.attributes
                0x0000000000000000       0x2e /usr/local/Cellar/arm-none-eabi-gcc/4.9-2015-q2-update/bin/../lib/gcc/arm-none-eabi/4.9.3/armv7e-m/libgcc.a(_divdi3.o)
 .text          0x0000000000000000      0x26c /usr/local/Cellar/arm-none-eabi-gcc/4.9-2015-q2-update/bin/../lib/gcc/arm-none-eabi/4.9.3/armv7e-m/libgcc.a(_udivdi3.o)
 .data          0x0000000000000000        0x0 /usr/local/Cellar/arm-none-eabi-gcc/4.9-2015-q2-update/bin/../lib/gcc/arm-none-eabi/4.9.3/armv7e-m/libgcc.a(_udivdi3.o)
 .bss           0x0000000000000000        0x0 /usr/local/Cellar/arm-none-eabi-gcc/4.9-2015-q2-update/bin/../lib/gcc/arm-none-eabi/4.9.3/armv7e-m/libgcc.a(_udivdi3.o)
 .ARM.extab     0x0000000000000000        0x0 /usr/local/Cellar/arm-none-eabi-gcc/4.9-2015-q2-update/bin/../lib/gcc/arm-none-eabi/4.9.3/armv7e-m/libgcc.a(_udivdi3.o)
 .ARM.exidx     0x0000000000000000        0x8 /usr/local/Cellar/arm-none-eabi-gcc/4.9-2015-q2-update/bin/../lib/gcc/arm-none-eabi/4.9.3/armv7e-m/libgcc.a(_udivdi3.o)
 .debug_frame   0x0000000000000000       0x30 /usr/local/Cellar/arm-none-eabi-gcc/4.9-2015-q2-update/bin/../lib/gcc/arm-none-eabi/4.9.3/armv7e-m/libgcc.a(_udivdi3.o)
 .ARM.attributes
                0x0000000000000000       0x2e /usr/local/Cellar/arm-none-eabi-gcc/4.9-2015-q2-update/bin/../lib/gcc/arm-none-eabi/4.9.3/armv7e-m/libgcc.a(_udivdi3.o)
 .text          0x0000000000000000        0x0 /usr/local/Cellar/arm-none-eabi-gcc/4.9-2015-q2-update/bin/../lib/gcc/arm-none-eabi/4.9.3/../../../../arm-none-eabi/lib/armv7e-m/libm.a(lib_a-s_floor.o)
 .data          0x0000000000000000        0x0 /usr/local/Cellar/arm-none-eabi-gcc/4.9-2015-q2-update/bin/../lib/gcc/arm-none-eabi/4.9.3/../../../../arm-none-eabi/lib/armv7e-m/libm.a(lib_a-s_floor.o)
 .bss           0x0000000000000000        0x0 /usr/local/Cellar/arm-none-eabi-gcc/4.9-2015-q2-update/bin/../lib/gcc/arm-none-eabi/4.9.3/../../../../arm-none-eabi/lib/armv7e-m/libm.a(lib_a-s_floor.o)
 .text          0x0000000000000000        0x0 /usr/local/Cellar/arm-none-eabi-gcc/4.9-2015-q2-update/bin/../lib/gcc/arm-none-eabi/4.9.3/../../../../arm-none-eabi/lib/armv7e-m/libm.a(lib_a-s_round.o)
 .data          0x0000000000000000        0x0 /usr/local/Cellar/arm-none-eabi-gcc/4.9-2015-q2-update/bin/../lib/gcc/arm-none-eabi/4.9.3/../../../../arm-none-eabi/lib/armv7e-m/libm.a(lib_a-s_round.o)
 .bss           0x0000000000000000        0x0 /usr/local/Cellar/arm-none-eabi-gcc/4.9-2015-q2-update/bin/../lib/gcc/arm-none-eabi/4.9.3/../../../../arm-none-eabi/lib/armv7e-m/libm.a(lib_a-s_round.o)
 .text          0x0000000000000000        0x0 /usr/local/Cellar/arm-none-eabi-gcc/4.9-2015-q2-update/bin/../lib/gcc/arm-none-eabi/4.9.3/../../../../arm-none-eabi/lib/armv7e-m/libc_nano.a(lib_a-abort.o)
 .data          0x0000000000000000        0x0 /usr/local/Cellar/arm-none-eabi-gcc/4.9-2015-q2-update/bin/../lib/gcc/arm-none-eabi/4.9.3/../../../../arm-none-eabi/lib/armv7e-m/libc_nano.a(lib_a-abort.o)
 .bss           0x0000000000000000        0x0 /usr/local/Cellar/arm-none-eabi-gcc/4.9-2015-q2-update/bin/../lib/gcc/arm-none-eabi/4.9.3/../../../../arm-none-eabi/lib/armv7e-m/libc_nano.a(lib_a-abort.o)
 .text          0x0000000000000000        0x0 /usr/local/Cellar/arm-none-eabi-gcc/4.9-2015-q2-update/bin/../lib/gcc/arm-none-eabi/4.9.3/../../../../arm-none-eabi/lib/armv7e-m/libc_nano.a(lib_a-cxa_atexit.o)
 .data          0x0000000000000000        0x0 /usr/local/Cellar/arm-none-eabi-gcc/4.9-2015-q2-update/bin/../lib/gcc/arm-none-eabi/4.9.3/../../../../arm-none-eabi/lib/armv7e-m/libc_nano.a(lib_a-cxa_atexit.o)
 .bss           0x0000000000000000        0x0 /usr/local/Cellar/arm-none-eabi-gcc/4.9-2015-q2-update/bin/../lib/gcc/arm-none-eabi/4.9.3/../../../../arm-none-eabi/lib/armv7e-m/libc_nano.a(lib_a-cxa_atexit.o)
 .text          0x0000000000000000        0x0 /usr/local/Cellar/arm-none-eabi-gcc/4.9-2015-q2-update/bin/../lib/gcc/arm-none-eabi/4.9.3/../../../../arm-none-eabi/lib/armv7e-m/libc_nano.a(lib_a-errno.o)
 .data          0x0000000000000000        0x0 /usr/local/Cellar/arm-none-eabi-gcc/4.9-2015-q2-update/bin/../lib/gcc/arm-none-eabi/4.9.3/../../../../arm-none-eabi/lib/armv7e-m/libc_nano.a(lib_a-errno.o)
 .bss           0x0000000000000000        0x0 /usr/local/Cellar/arm-none-eabi-gcc/4.9-2015-q2-update/bin/../lib/gcc/arm-none-eabi/4.9.3/../../../../arm-none-eabi/lib/armv7e-m/libc_nano.a(lib_a-errno.o)
 .text          0x0000000000000000        0x0 /usr/local/Cellar/arm-none-eabi-gcc/4.9-2015-q2-update/bin/../lib/gcc/arm-none-eabi/4.9.3/../../../../arm-none-eabi/lib/armv7e-m/libc_nano.a(lib_a-fflush.o)
 .data          0x0000000000000000        0x0 /usr/local/Cellar/arm-none-eabi-gcc/4.9-2015-q2-update/bin/../lib/gcc/arm-none-eabi/4.9.3/../../../../arm-none-eabi/lib/armv7e-m/libc_nano.a(lib_a-fflush.o)
 .bss           0x0000000000000000        0x0 /usr/local/Cellar/arm-none-eabi-gcc/4.9-2015-q2-update/bin/../lib/gcc/arm-none-eabi/4.9.3/../../../../arm-none-eabi/lib/armv7e-m/libc_nano.a(lib_a-fflush.o)
 .text          0x0000000000000000        0x0 /usr/local/Cellar/arm-none-eabi-gcc/4.9-2015-q2-update/bin/../lib/gcc/arm-none-eabi/4.9.3/../../../../arm-none-eabi/lib/armv7e-m/libc_nano.a(lib_a-findfp.o)
 .data          0x0000000000000000        0x0 /usr/local/Cellar/arm-none-eabi-gcc/4.9-2015-q2-update/bin/../lib/gcc/arm-none-eabi/4.9.3/../../../../arm-none-eabi/lib/armv7e-m/libc_nano.a(lib_a-findfp.o)
 .bss           0x0000000000000000        0x0 /usr/local/Cellar/arm-none-eabi-gcc/4.9-2015-q2-update/bin/../lib/gcc/arm-none-eabi/4.9.3/../../../../arm-none-eabi/lib/armv7e-m/libc_nano.a(lib_a-findfp.o)
 .text.__fp_lock
                0x0000000000000000        0x4 /usr/local/Cellar/arm-none-eabi-gcc/4.9-2015-q2-update/bin/../lib/gcc/arm-none-eabi/4.9.3/../../../../arm-none-eabi/lib/armv7e-m/libc_nano.a(lib_a-findfp.o)
 .text.__fp_unlock
                0x0000000000000000        0x4 /usr/local/Cellar/arm-none-eabi-gcc/4.9-2015-q2-update/bin/../lib/gcc/arm-none-eabi/4.9.3/../../../../arm-none-eabi/lib/armv7e-m/libc_nano.a(lib_a-findfp.o)
 .text._cleanup
                0x0000000000000000        0xc /usr/local/Cellar/arm-none-eabi-gcc/4.9-2015-q2-update/bin/../lib/gcc/arm-none-eabi/4.9.3/../../../../arm-none-eabi/lib/armv7e-m/libc_nano.a(lib_a-findfp.o)
 .text.__sfp_lock_acquire
                0x0000000000000000        0x2 /usr/local/Cellar/arm-none-eabi-gcc/4.9-2015-q2-update/bin/../lib/gcc/arm-none-eabi/4.9.3/../../../../arm-none-eabi/lib/armv7e-m/libc_nano.a(lib_a-findfp.o)
 .text.__sfp_lock_release
                0x0000000000000000        0x2 /usr/local/Cellar/arm-none-eabi-gcc/4.9-2015-q2-update/bin/../lib/gcc/arm-none-eabi/4.9.3/../../../../arm-none-eabi/lib/armv7e-m/libc_nano.a(lib_a-findfp.o)
 .text.__sinit_lock_acquire
                0x0000000000000000        0x2 /usr/local/Cellar/arm-none-eabi-gcc/4.9-2015-q2-update/bin/../lib/gcc/arm-none-eabi/4.9.3/../../../../arm-none-eabi/lib/armv7e-m/libc_nano.a(lib_a-findfp.o)
 .text.__sinit_lock_release
                0x0000000000000000        0x2 /usr/local/Cellar/arm-none-eabi-gcc/4.9-2015-q2-update/bin/../lib/gcc/arm-none-eabi/4.9.3/../../../../arm-none-eabi/lib/armv7e-m/libc_nano.a(lib_a-findfp.o)
 .text.__fp_lock_all
                0x0000000000000000       0x14 /usr/local/Cellar/arm-none-eabi-gcc/4.9-2015-q2-update/bin/../lib/gcc/arm-none-eabi/4.9.3/../../../../arm-none-eabi/lib/armv7e-m/libc_nano.a(lib_a-findfp.o)
 .text.__fp_unlock_all
                0x0000000000000000       0x14 /usr/local/Cellar/arm-none-eabi-gcc/4.9-2015-q2-update/bin/../lib/gcc/arm-none-eabi/4.9.3/../../../../arm-none-eabi/lib/armv7e-m/libc_nano.a(lib_a-findfp.o)
 .text          0x0000000000000000        0x0 /usr/local/Cellar/arm-none-eabi-gcc/4.9-2015-q2-update/bin/../lib/gcc/arm-none-eabi/4.9.3/../../../../arm-none-eabi/lib/armv7e-m/libc_nano.a(lib_a-fprintf.o)
 .data          0x0000000000000000        0x0 /usr/local/Cellar/arm-none-eabi-gcc/4.9-2015-q2-update/bin/../lib/gcc/arm-none-eabi/4.9.3/../../../../arm-none-eabi/lib/armv7e-m/libc_nano.a(lib_a-fprintf.o)
 .bss           0x0000000000000000        0x0 /usr/local/Cellar/arm-none-eabi-gcc/4.9-2015-q2-update/bin/../lib/gcc/arm-none-eabi/4.9.3/../../../../arm-none-eabi/lib/armv7e-m/libc_nano.a(lib_a-fprintf.o)
 .text._fprintf_r
                0x0000000000000000       0x1a /usr/local/Cellar/arm-none-eabi-gcc/4.9-2015-q2-update/bin/../lib/gcc/arm-none-eabi/4.9.3/../../../../arm-none-eabi/lib/armv7e-m/libc_nano.a(lib_a-fprintf.o)
 .text          0x0000000000000000        0x0 /usr/local/Cellar/arm-none-eabi-gcc/4.9-2015-q2-update/bin/../lib/gcc/arm-none-eabi/4.9.3/../../../../arm-none-eabi/lib/armv7e-m/libc_nano.a(lib_a-fputs.o)
 .data          0x0000000000000000        0x0 /usr/local/Cellar/arm-none-eabi-gcc/4.9-2015-q2-update/bin/../lib/gcc/arm-none-eabi/4.9.3/../../../../arm-none-eabi/lib/armv7e-m/libc_nano.a(lib_a-fputs.o)
 .bss           0x0000000000000000        0x0 /usr/local/Cellar/arm-none-eabi-gcc/4.9-2015-q2-update/bin/../lib/gcc/arm-none-eabi/4.9.3/../../../../arm-none-eabi/lib/armv7e-m/libc_nano.a(lib_a-fputs.o)
 .text._fputs_r
                0x0000000000000000       0xa8 /usr/local/Cellar/arm-none-eabi-gcc/4.9-2015-q2-update/bin/../lib/gcc/arm-none-eabi/4.9.3/../../../../arm-none-eabi/lib/armv7e-m/libc_nano.a(lib_a-fputs.o)
 .text.fputs    0x0000000000000000       0x14 /usr/local/Cellar/arm-none-eabi-gcc/4.9-2015-q2-update/bin/../lib/gcc/arm-none-eabi/4.9.3/../../../../arm-none-eabi/lib/armv7e-m/libc_nano.a(lib_a-fputs.o)
 .debug_frame   0x0000000000000000       0x3c /usr/local/Cellar/arm-none-eabi-gcc/4.9-2015-q2-update/bin/../lib/gcc/arm-none-eabi/4.9.3/../../../../arm-none-eabi/lib/armv7e-m/libc_nano.a(lib_a-fputs.o)
 .ARM.attributes
                0x0000000000000000       0x2e /usr/local/Cellar/arm-none-eabi-gcc/4.9-2015-q2-update/bin/../lib/gcc/arm-none-eabi/4.9.3/../../../../arm-none-eabi/lib/armv7e-m/libc_nano.a(lib_a-fputs.o)
 .text          0x0000000000000000        0x0 /usr/local/Cellar/arm-none-eabi-gcc/4.9-2015-q2-update/bin/../lib/gcc/arm-none-eabi/4.9.3/../../../../arm-none-eabi/lib/armv7e-m/libc_nano.a(lib_a-fwalk.o)
 .data          0x0000000000000000        0x0 /usr/local/Cellar/arm-none-eabi-gcc/4.9-2015-q2-update/bin/../lib/gcc/arm-none-eabi/4.9.3/../../../../arm-none-eabi/lib/armv7e-m/libc_nano.a(lib_a-fwalk.o)
 .bss           0x0000000000000000        0x0 /usr/local/Cellar/arm-none-eabi-gcc/4.9-2015-q2-update/bin/../lib/gcc/arm-none-eabi/4.9.3/../../../../arm-none-eabi/lib/armv7e-m/libc_nano.a(lib_a-fwalk.o)
 .text._fwalk   0x0000000000000000       0x38 /usr/local/Cellar/arm-none-eabi-gcc/4.9-2015-q2-update/bin/../lib/gcc/arm-none-eabi/4.9.3/../../../../arm-none-eabi/lib/armv7e-m/libc_nano.a(lib_a-fwalk.o)
 .text          0x0000000000000000        0x0 /usr/local/Cellar/arm-none-eabi-gcc/4.9-2015-q2-update/bin/../lib/gcc/arm-none-eabi/4.9.3/../../../../arm-none-eabi/lib/armv7e-m/libc_nano.a(lib_a-impure.o)
 .data          0x0000000000000000        0x0 /usr/local/Cellar/arm-none-eabi-gcc/4.9-2015-q2-update/bin/../lib/gcc/arm-none-eabi/4.9.3/../../../../arm-none-eabi/lib/armv7e-m/libc_nano.a(lib_a-impure.o)
 .bss           0x0000000000000000        0x0 /usr/local/Cellar/arm-none-eabi-gcc/4.9-2015-q2-update/bin/../lib/gcc/arm-none-eabi/4.9.3/../../../../arm-none-eabi/lib/armv7e-m/libc_nano.a(lib_a-impure.o)
 .text          0x0000000000000000        0x0 /usr/local/Cellar/arm-none-eabi-gcc/4.9-2015-q2-update/bin/../lib/gcc/arm-none-eabi/4.9.3/../../../../arm-none-eabi/lib/armv7e-m/libc_nano.a(lib_a-init.o)
 .data          0x0000000000000000        0x0 /usr/local/Cellar/arm-none-eabi-gcc/4.9-2015-q2-update/bin/../lib/gcc/arm-none-eabi/4.9.3/../../../../arm-none-eabi/lib/armv7e-m/libc_nano.a(lib_a-init.o)
 .bss           0x0000000000000000        0x0 /usr/local/Cellar/arm-none-eabi-gcc/4.9-2015-q2-update/bin/../lib/gcc/arm-none-eabi/4.9.3/../../../../arm-none-eabi/lib/armv7e-m/libc_nano.a(lib_a-init.o)
 .text          0x0000000000000000        0x0 /usr/local/Cellar/arm-none-eabi-gcc/4.9-2015-q2-update/bin/../lib/gcc/arm-none-eabi/4.9.3/../../../../arm-none-eabi/lib/armv7e-m/libc_nano.a(lib_a-malloc.o)
 .data          0x0000000000000000        0x0 /usr/local/Cellar/arm-none-eabi-gcc/4.9-2015-q2-update/bin/../lib/gcc/arm-none-eabi/4.9.3/../../../../arm-none-eabi/lib/armv7e-m/libc_nano.a(lib_a-malloc.o)
 .bss           0x0000000000000000        0x0 /usr/local/Cellar/arm-none-eabi-gcc/4.9-2015-q2-update/bin/../lib/gcc/arm-none-eabi/4.9.3/../../../../arm-none-eabi/lib/armv7e-m/libc_nano.a(lib_a-malloc.o)
 .text          0x0000000000000000        0x0 /usr/local/Cellar/arm-none-eabi-gcc/4.9-2015-q2-update/bin/../lib/gcc/arm-none-eabi/4.9.3/../../../../arm-none-eabi/lib/armv7e-m/libc_nano.a(lib_a-memcpy.o)
 .data          0x0000000000000000        0x0 /usr/local/Cellar/arm-none-eabi-gcc/4.9-2015-q2-update/bin/../lib/gcc/arm-none-eabi/4.9.3/../../../../arm-none-eabi/lib/armv7e-m/libc_nano.a(lib_a-memcpy.o)
 .bss           0x0000000000000000        0x0 /usr/local/Cellar/arm-none-eabi-gcc/4.9-2015-q2-update/bin/../lib/gcc/arm-none-eabi/4.9.3/../../../../arm-none-eabi/lib/armv7e-m/libc_nano.a(lib_a-memcpy.o)
 .text.memcpy   0x0000000000000000       0x16 /usr/local/Cellar/arm-none-eabi-gcc/4.9-2015-q2-update/bin/../lib/gcc/arm-none-eabi/4.9.3/../../../../arm-none-eabi/lib/armv7e-m/libc_nano.a(lib_a-memcpy.o)
 .debug_frame   0x0000000000000000       0x28 /usr/local/Cellar/arm-none-eabi-gcc/4.9-2015-q2-update/bin/../lib/gcc/arm-none-eabi/4.9.3/../../../../arm-none-eabi/lib/armv7e-m/libc_nano.a(lib_a-memcpy.o)
 .ARM.attributes
                0x0000000000000000       0x2e /usr/local/Cellar/arm-none-eabi-gcc/4.9-2015-q2-update/bin/../lib/gcc/arm-none-eabi/4.9.3/../../../../arm-none-eabi/lib/armv7e-m/libc_nano.a(lib_a-memcpy.o)
 .text          0x0000000000000000        0x0 /usr/local/Cellar/arm-none-eabi-gcc/4.9-2015-q2-update/bin/../lib/gcc/arm-none-eabi/4.9.3/../../../../arm-none-eabi/lib/armv7e-m/libc_nano.a(lib_a-memset.o)
 .data          0x0000000000000000        0x0 /usr/local/Cellar/arm-none-eabi-gcc/4.9-2015-q2-update/bin/../lib/gcc/arm-none-eabi/4.9.3/../../../../arm-none-eabi/lib/armv7e-m/libc_nano.a(lib_a-memset.o)
 .bss           0x0000000000000000        0x0 /usr/local/Cellar/arm-none-eabi-gcc/4.9-2015-q2-update/bin/../lib/gcc/arm-none-eabi/4.9.3/../../../../arm-none-eabi/lib/armv7e-m/libc_nano.a(lib_a-memset.o)
 .text          0x0000000000000000        0x0 /usr/local/Cellar/arm-none-eabi-gcc/4.9-2015-q2-update/bin/../lib/gcc/arm-none-eabi/4.9.3/../../../../arm-none-eabi/lib/armv7e-m/libc_nano.a(lib_a-nano-vfprintf.o)
 .data          0x0000000000000000        0x0 /usr/local/Cellar/arm-none-eabi-gcc/4.9-2015-q2-update/bin/../lib/gcc/arm-none-eabi/4.9.3/../../../../arm-none-eabi/lib/armv7e-m/libc_nano.a(lib_a-nano-vfprintf.o)
 .bss           0x0000000000000000        0x0 /usr/local/Cellar/arm-none-eabi-gcc/4.9-2015-q2-update/bin/../lib/gcc/arm-none-eabi/4.9.3/../../../../arm-none-eabi/lib/armv7e-m/libc_nano.a(lib_a-nano-vfprintf.o)
 .text.__sprint_r
                0x0000000000000000       0x1a /usr/local/Cellar/arm-none-eabi-gcc/4.9-2015-q2-update/bin/../lib/gcc/arm-none-eabi/4.9.3/../../../../arm-none-eabi/lib/armv7e-m/libc_nano.a(lib_a-nano-vfprintf.o)
 .text          0x0000000000000000        0x0 /usr/local/Cellar/arm-none-eabi-gcc/4.9-2015-q2-update/bin/../lib/gcc/arm-none-eabi/4.9.3/../../../../arm-none-eabi/lib/armv7e-m/libc_nano.a(lib_a-nano-vfprintf_i.o)
 .data          0x0000000000000000        0x0 /usr/local/Cellar/arm-none-eabi-gcc/4.9-2015-q2-update/bin/../lib/gcc/arm-none-eabi/4.9.3/../../../../arm-none-eabi/lib/armv7e-m/libc_nano.a(lib_a-nano-vfprintf_i.o)
 .bss           0x0000000000000000        0x0 /usr/local/Cellar/arm-none-eabi-gcc/4.9-2015-q2-update/bin/../lib/gcc/arm-none-eabi/4.9.3/../../../../arm-none-eabi/lib/armv7e-m/libc_nano.a(lib_a-nano-vfprintf_i.o)
 .text          0x0000000000000000        0x0 /usr/local/Cellar/arm-none-eabi-gcc/4.9-2015-q2-update/bin/../lib/gcc/arm-none-eabi/4.9.3/../../../../arm-none-eabi/lib/armv7e-m/libc_nano.a(lib_a-printf.o)
 .data          0x0000000000000000        0x0 /usr/local/Cellar/arm-none-eabi-gcc/4.9-2015-q2-update/bin/../lib/gcc/arm-none-eabi/4.9.3/../../../../arm-none-eabi/lib/armv7e-m/libc_nano.a(lib_a-printf.o)
 .bss           0x0000000000000000        0x0 /usr/local/Cellar/arm-none-eabi-gcc/4.9-2015-q2-update/bin/../lib/gcc/arm-none-eabi/4.9.3/../../../../arm-none-eabi/lib/armv7e-m/libc_nano.a(lib_a-printf.o)
 .text._printf_r
                0x0000000000000000       0x28 /usr/local/Cellar/arm-none-eabi-gcc/4.9-2015-q2-update/bin/../lib/gcc/arm-none-eabi/4.9.3/../../../../arm-none-eabi/lib/armv7e-m/libc_nano.a(lib_a-printf.o)
 .text          0x0000000000000000        0x0 /usr/local/Cellar/arm-none-eabi-gcc/4.9-2015-q2-update/bin/../lib/gcc/arm-none-eabi/4.9.3/../../../../arm-none-eabi/lib/armv7e-m/libc_nano.a(lib_a-puts.o)
 .data          0x0000000000000000        0x0 /usr/local/Cellar/arm-none-eabi-gcc/4.9-2015-q2-update/bin/../lib/gcc/arm-none-eabi/4.9.3/../../../../arm-none-eabi/lib/armv7e-m/libc_nano.a(lib_a-puts.o)
 .bss           0x0000000000000000        0x0 /usr/local/Cellar/arm-none-eabi-gcc/4.9-2015-q2-update/bin/../lib/gcc/arm-none-eabi/4.9.3/../../../../arm-none-eabi/lib/armv7e-m/libc_nano.a(lib_a-puts.o)
 .text          0x0000000000000000        0x0 /usr/local/Cellar/arm-none-eabi-gcc/4.9-2015-q2-update/bin/../lib/gcc/arm-none-eabi/4.9.3/../../../../arm-none-eabi/lib/armv7e-m/libc_nano.a(lib_a-signal.o)
 .data          0x0000000000000000        0x0 /usr/local/Cellar/arm-none-eabi-gcc/4.9-2015-q2-update/bin/../lib/gcc/arm-none-eabi/4.9.3/../../../../arm-none-eabi/lib/armv7e-m/libc_nano.a(lib_a-signal.o)
 .bss           0x0000000000000000        0x0 /usr/local/Cellar/arm-none-eabi-gcc/4.9-2015-q2-update/bin/../lib/gcc/arm-none-eabi/4.9.3/../../../../arm-none-eabi/lib/armv7e-m/libc_nano.a(lib_a-signal.o)
 .text._init_signal_r
                0x0000000000000000       0x2c /usr/local/Cellar/arm-none-eabi-gcc/4.9-2015-q2-update/bin/../lib/gcc/arm-none-eabi/4.9.3/../../../../arm-none-eabi/lib/armv7e-m/libc_nano.a(lib_a-signal.o)
 .text._signal_r
                0x0000000000000000       0x30 /usr/local/Cellar/arm-none-eabi-gcc/4.9-2015-q2-update/bin/../lib/gcc/arm-none-eabi/4.9.3/../../../../arm-none-eabi/lib/armv7e-m/libc_nano.a(lib_a-signal.o)
 .text.__sigtramp_r
                0x0000000000000000       0x4a /usr/local/Cellar/arm-none-eabi-gcc/4.9-2015-q2-update/bin/../lib/gcc/arm-none-eabi/4.9.3/../../../../arm-none-eabi/lib/armv7e-m/libc_nano.a(lib_a-signal.o)
 .text.signal   0x0000000000000000       0x14 /usr/local/Cellar/arm-none-eabi-gcc/4.9-2015-q2-update/bin/../lib/gcc/arm-none-eabi/4.9.3/../../../../arm-none-eabi/lib/armv7e-m/libc_nano.a(lib_a-signal.o)
 .text._init_signal
                0x0000000000000000        0xc /usr/local/Cellar/arm-none-eabi-gcc/4.9-2015-q2-update/bin/../lib/gcc/arm-none-eabi/4.9.3/../../../../arm-none-eabi/lib/armv7e-m/libc_nano.a(lib_a-signal.o)
 .text.__sigtramp
                0x0000000000000000       0x10 /usr/local/Cellar/arm-none-eabi-gcc/4.9-2015-q2-update/bin/../lib/gcc/arm-none-eabi/4.9.3/../../../../arm-none-eabi/lib/armv7e-m/libc_nano.a(lib_a-signal.o)
 .text          0x0000000000000000        0x0 /usr/local/Cellar/arm-none-eabi-gcc/4.9-2015-q2-update/bin/../lib/gcc/arm-none-eabi/4.9.3/../../../../arm-none-eabi/lib/armv7e-m/libc_nano.a(lib_a-signalr.o)
 .data          0x0000000000000000        0x0 /usr/local/Cellar/arm-none-eabi-gcc/4.9-2015-q2-update/bin/../lib/gcc/arm-none-eabi/4.9.3/../../../../arm-none-eabi/lib/armv7e-m/libc_nano.a(lib_a-signalr.o)
 .bss           0x0000000000000000        0x0 /usr/local/Cellar/arm-none-eabi-gcc/4.9-2015-q2-update/bin/../lib/gcc/arm-none-eabi/4.9.3/../../../../arm-none-eabi/lib/armv7e-m/libc_nano.a(lib_a-signalr.o)
 .text          0x0000000000000000        0x0 /usr/local/Cellar/arm-none-eabi-gcc/4.9-2015-q2-update/bin/../lib/gcc/arm-none-eabi/4.9.3/../../../../arm-none-eabi/lib/armv7e-m/libc_nano.a(lib_a-sscanf.o)
 .data          0x0000000000000000        0x0 /usr/local/Cellar/arm-none-eabi-gcc/4.9-2015-q2-update/bin/../lib/gcc/arm-none-eabi/4.9.3/../../../../arm-none-eabi/lib/armv7e-m/libc_nano.a(lib_a-sscanf.o)
 .bss           0x0000000000000000        0x0 /usr/local/Cellar/arm-none-eabi-gcc/4.9-2015-q2-update/bin/../lib/gcc/arm-none-eabi/4.9.3/../../../../arm-none-eabi/lib/armv7e-m/libc_nano.a(lib_a-sscanf.o)
 .text.sscanf   0x0000000000000000       0x54 /usr/local/Cellar/arm-none-eabi-gcc/4.9-2015-q2-update/bin/../lib/gcc/arm-none-eabi/4.9.3/../../../../arm-none-eabi/lib/armv7e-m/libc_nano.a(lib_a-sscanf.o)
 .text._sscanf_r
                0x0000000000000000       0x54 /usr/local/Cellar/arm-none-eabi-gcc/4.9-2015-q2-update/bin/../lib/gcc/arm-none-eabi/4.9.3/../../../../arm-none-eabi/lib/armv7e-m/libc_nano.a(lib_a-sscanf.o)
 .debug_frame   0x0000000000000000       0x80 /usr/local/Cellar/arm-none-eabi-gcc/4.9-2015-q2-update/bin/../lib/gcc/arm-none-eabi/4.9.3/../../../../arm-none-eabi/lib/armv7e-m/libc_nano.a(lib_a-sscanf.o)
 .ARM.attributes
                0x0000000000000000       0x2e /usr/local/Cellar/arm-none-eabi-gcc/4.9-2015-q2-update/bin/../lib/gcc/arm-none-eabi/4.9.3/../../../../arm-none-eabi/lib/armv7e-m/libc_nano.a(lib_a-sscanf.o)
 .text          0x0000000000000000        0x0 /usr/local/Cellar/arm-none-eabi-gcc/4.9-2015-q2-update/bin/../lib/gcc/arm-none-eabi/4.9.3/../../../../arm-none-eabi/lib/armv7e-m/libc_nano.a(lib_a-stdio.o)
 .data          0x0000000000000000        0x0 /usr/local/Cellar/arm-none-eabi-gcc/4.9-2015-q2-update/bin/../lib/gcc/arm-none-eabi/4.9.3/../../../../arm-none-eabi/lib/armv7e-m/libc_nano.a(lib_a-stdio.o)
 .bss           0x0000000000000000        0x0 /usr/local/Cellar/arm-none-eabi-gcc/4.9-2015-q2-update/bin/../lib/gcc/arm-none-eabi/4.9.3/../../../../arm-none-eabi/lib/armv7e-m/libc_nano.a(lib_a-stdio.o)
 .text.__seofread
                0x0000000000000000        0x4 /usr/local/Cellar/arm-none-eabi-gcc/4.9-2015-q2-update/bin/../lib/gcc/arm-none-eabi/4.9.3/../../../../arm-none-eabi/lib/armv7e-m/libc_nano.a(lib_a-stdio.o)
 .text          0x0000000000000000       0x14 /usr/local/Cellar/arm-none-eabi-gcc/4.9-2015-q2-update/bin/../lib/gcc/arm-none-eabi/4.9.3/../../../../arm-none-eabi/lib/armv7e-m/libc_nano.a(lib_a-strcmp.o)
 .data          0x0000000000000000        0x0 /usr/local/Cellar/arm-none-eabi-gcc/4.9-2015-q2-update/bin/../lib/gcc/arm-none-eabi/4.9.3/../../../../arm-none-eabi/lib/armv7e-m/libc_nano.a(lib_a-strcmp.o)
 .bss           0x0000000000000000        0x0 /usr/local/Cellar/arm-none-eabi-gcc/4.9-2015-q2-update/bin/../lib/gcc/arm-none-eabi/4.9.3/../../../../arm-none-eabi/lib/armv7e-m/libc_nano.a(lib_a-strcmp.o)
 .text          0x0000000000000000        0x0 /usr/local/Cellar/arm-none-eabi-gcc/4.9-2015-q2-update/bin/../lib/gcc/arm-none-eabi/4.9.3/../../../../arm-none-eabi/lib/armv7e-m/libc_nano.a(lib_a-strlen.o)
 .data          0x0000000000000000        0x0 /usr/local/Cellar/arm-none-eabi-gcc/4.9-2015-q2-update/bin/../lib/gcc/arm-none-eabi/4.9.3/../../../../arm-none-eabi/lib/armv7e-m/libc_nano.a(lib_a-strlen.o)
 .bss           0x0000000000000000        0x0 /usr/local/Cellar/arm-none-eabi-gcc/4.9-2015-q2-update/bin/../lib/gcc/arm-none-eabi/4.9.3/../../../../arm-none-eabi/lib/armv7e-m/libc_nano.a(lib_a-strlen.o)
 .text.strlen   0x0000000000000000       0x10 /usr/local/Cellar/arm-none-eabi-gcc/4.9-2015-q2-update/bin/../lib/gcc/arm-none-eabi/4.9.3/../../../../arm-none-eabi/lib/armv7e-m/libc_nano.a(lib_a-strlen.o)
 .debug_frame   0x0000000000000000       0x20 /usr/local/Cellar/arm-none-eabi-gcc/4.9-2015-q2-update/bin/../lib/gcc/arm-none-eabi/4.9.3/../../../../arm-none-eabi/lib/armv7e-m/libc_nano.a(lib_a-strlen.o)
 .ARM.attributes
                0x0000000000000000       0x2e /usr/local/Cellar/arm-none-eabi-gcc/4.9-2015-q2-update/bin/../lib/gcc/arm-none-eabi/4.9.3/../../../../arm-none-eabi/lib/armv7e-m/libc_nano.a(lib_a-strlen.o)
 .text          0x0000000000000000        0x0 /usr/local/Cellar/arm-none-eabi-gcc/4.9-2015-q2-update/bin/../lib/gcc/arm-none-eabi/4.9.3/../../../../arm-none-eabi/lib/armv7e-m/libc_nano.a(lib_a-strncmp.o)
 .data          0x0000000000000000        0x0 /usr/local/Cellar/arm-none-eabi-gcc/4.9-2015-q2-update/bin/../lib/gcc/arm-none-eabi/4.9.3/../../../../arm-none-eabi/lib/armv7e-m/libc_nano.a(lib_a-strncmp.o)
 .bss           0x0000000000000000        0x0 /usr/local/Cellar/arm-none-eabi-gcc/4.9-2015-q2-update/bin/../lib/gcc/arm-none-eabi/4.9.3/../../../../arm-none-eabi/lib/armv7e-m/libc_nano.a(lib_a-strncmp.o)
 .text.strncmp  0x0000000000000000       0x34 /usr/local/Cellar/arm-none-eabi-gcc/4.9-2015-q2-update/bin/../lib/gcc/arm-none-eabi/4.9.3/../../../../arm-none-eabi/lib/armv7e-m/libc_nano.a(lib_a-strncmp.o)
 .debug_frame   0x0000000000000000       0x2c /usr/local/Cellar/arm-none-eabi-gcc/4.9-2015-q2-update/bin/../lib/gcc/arm-none-eabi/4.9.3/../../../../arm-none-eabi/lib/armv7e-m/libc_nano.a(lib_a-strncmp.o)
 .ARM.attributes
                0x0000000000000000       0x2e /usr/local/Cellar/arm-none-eabi-gcc/4.9-2015-q2-update/bin/../lib/gcc/arm-none-eabi/4.9.3/../../../../arm-none-eabi/lib/armv7e-m/libc_nano.a(lib_a-strncmp.o)
 .text          0x0000000000000000        0x0 /usr/local/Cellar/arm-none-eabi-gcc/4.9-2015-q2-update/bin/../lib/gcc/arm-none-eabi/4.9.3/../../../../arm-none-eabi/lib/armv7e-m/libc_nano.a(lib_a-strncpy.o)
 .data          0x0000000000000000        0x0 /usr/local/Cellar/arm-none-eabi-gcc/4.9-2015-q2-update/bin/../lib/gcc/arm-none-eabi/4.9.3/../../../../arm-none-eabi/lib/armv7e-m/libc_nano.a(lib_a-strncpy.o)
 .bss           0x0000000000000000        0x0 /usr/local/Cellar/arm-none-eabi-gcc/4.9-2015-q2-update/bin/../lib/gcc/arm-none-eabi/4.9.3/../../../../arm-none-eabi/lib/armv7e-m/libc_nano.a(lib_a-strncpy.o)
 .text.strncpy  0x0000000000000000       0x24 /usr/local/Cellar/arm-none-eabi-gcc/4.9-2015-q2-update/bin/../lib/gcc/arm-none-eabi/4.9.3/../../../../arm-none-eabi/lib/armv7e-m/libc_nano.a(lib_a-strncpy.o)
 .debug_frame   0x0000000000000000       0x28 /usr/local/Cellar/arm-none-eabi-gcc/4.9-2015-q2-update/bin/../lib/gcc/arm-none-eabi/4.9.3/../../../../arm-none-eabi/lib/armv7e-m/libc_nano.a(lib_a-strncpy.o)
 .ARM.attributes
                0x0000000000000000       0x2e /usr/local/Cellar/arm-none-eabi-gcc/4.9-2015-q2-update/bin/../lib/gcc/arm-none-eabi/4.9.3/../../../../arm-none-eabi/lib/armv7e-m/libc_nano.a(lib_a-strncpy.o)
 .text          0x0000000000000000        0x0 /usr/local/Cellar/arm-none-eabi-gcc/4.9-2015-q2-update/bin/../lib/gcc/arm-none-eabi/4.9.3/../../../../arm-none-eabi/lib/armv7e-m/libc_nano.a(lib_a-wbuf.o)
 .data          0x0000000000000000        0x0 /usr/local/Cellar/arm-none-eabi-gcc/4.9-2015-q2-update/bin/../lib/gcc/arm-none-eabi/4.9.3/../../../../arm-none-eabi/lib/armv7e-m/libc_nano.a(lib_a-wbuf.o)
 .bss           0x0000000000000000        0x0 /usr/local/Cellar/arm-none-eabi-gcc/4.9-2015-q2-update/bin/../lib/gcc/arm-none-eabi/4.9.3/../../../../arm-none-eabi/lib/armv7e-m/libc_nano.a(lib_a-wbuf.o)
 .text.__swbuf  0x0000000000000000       0x14 /usr/local/Cellar/arm-none-eabi-gcc/4.9-2015-q2-update/bin/../lib/gcc/arm-none-eabi/4.9.3/../../../../arm-none-eabi/lib/armv7e-m/libc_nano.a(lib_a-wbuf.o)
 .text          0x0000000000000000        0x0 /usr/local/Cellar/arm-none-eabi-gcc/4.9-2015-q2-update/bin/../lib/gcc/arm-none-eabi/4.9.3/../../../../arm-none-eabi/lib/armv7e-m/libc_nano.a(lib_a-writer.o)
 .data          0x0000000000000000        0x0 /usr/local/Cellar/arm-none-eabi-gcc/4.9-2015-q2-update/bin/../lib/gcc/arm-none-eabi/4.9.3/../../../../arm-none-eabi/lib/armv7e-m/libc_nano.a(lib_a-writer.o)
 .bss           0x0000000000000000        0x0 /usr/local/Cellar/arm-none-eabi-gcc/4.9-2015-q2-update/bin/../lib/gcc/arm-none-eabi/4.9.3/../../../../arm-none-eabi/lib/armv7e-m/libc_nano.a(lib_a-writer.o)
 .text          0x0000000000000000        0x0 /usr/local/Cellar/arm-none-eabi-gcc/4.9-2015-q2-update/bin/../lib/gcc/arm-none-eabi/4.9.3/../../../../arm-none-eabi/lib/armv7e-m/libc_nano.a(lib_a-wsetup.o)
 .data          0x0000000000000000        0x0 /usr/local/Cellar/arm-none-eabi-gcc/4.9-2015-q2-update/bin/../lib/gcc/arm-none-eabi/4.9.3/../../../../arm-none-eabi/lib/armv7e-m/libc_nano.a(lib_a-wsetup.o)
 .bss           0x0000000000000000        0x0 /usr/local/Cellar/arm-none-eabi-gcc/4.9-2015-q2-update/bin/../lib/gcc/arm-none-eabi/4.9.3/../../../../arm-none-eabi/lib/armv7e-m/libc_nano.a(lib_a-wsetup.o)
 .text          0x0000000000000000        0x0 /usr/local/Cellar/arm-none-eabi-gcc/4.9-2015-q2-update/bin/../lib/gcc/arm-none-eabi/4.9.3/../../../../arm-none-eabi/lib/armv7e-m/libc_nano.a(lib_a-closer.o)
 .data          0x0000000000000000        0x0 /usr/local/Cellar/arm-none-eabi-gcc/4.9-2015-q2-update/bin/../lib/gcc/arm-none-eabi/4.9.3/../../../../arm-none-eabi/lib/armv7e-m/libc_nano.a(lib_a-closer.o)
 .bss           0x0000000000000000        0x0 /usr/local/Cellar/arm-none-eabi-gcc/4.9-2015-q2-update/bin/../lib/gcc/arm-none-eabi/4.9.3/../../../../arm-none-eabi/lib/armv7e-m/libc_nano.a(lib_a-closer.o)
 .text          0x0000000000000000        0x0 /usr/local/Cellar/arm-none-eabi-gcc/4.9-2015-q2-update/bin/../lib/gcc/arm-none-eabi/4.9.3/../../../../arm-none-eabi/lib/armv7e-m/libc_nano.a(lib_a-fvwrite.o)
 .data          0x0000000000000000        0x0 /usr/local/Cellar/arm-none-eabi-gcc/4.9-2015-q2-update/bin/../lib/gcc/arm-none-eabi/4.9.3/../../../../arm-none-eabi/lib/armv7e-m/libc_nano.a(lib_a-fvwrite.o)
 .bss           0x0000000000000000        0x0 /usr/local/Cellar/arm-none-eabi-gcc/4.9-2015-q2-update/bin/../lib/gcc/arm-none-eabi/4.9.3/../../../../arm-none-eabi/lib/armv7e-m/libc_nano.a(lib_a-fvwrite.o)
 .text.__sfvwrite_r
                0x0000000000000000      0x2a0 /usr/local/Cellar/arm-none-eabi-gcc/4.9-2015-q2-update/bin/../lib/gcc/arm-none-eabi/4.9.3/../../../../arm-none-eabi/lib/armv7e-m/libc_nano.a(lib_a-fvwrite.o)
 .debug_frame   0x0000000000000000       0x3c /usr/local/Cellar/arm-none-eabi-gcc/4.9-2015-q2-update/bin/../lib/gcc/arm-none-eabi/4.9.3/../../../../arm-none-eabi/lib/armv7e-m/libc_nano.a(lib_a-fvwrite.o)
 .ARM.attributes
                0x0000000000000000       0x2e /usr/local/Cellar/arm-none-eabi-gcc/4.9-2015-q2-update/bin/../lib/gcc/arm-none-eabi/4.9.3/../../../../arm-none-eabi/lib/armv7e-m/libc_nano.a(lib_a-fvwrite.o)
 .text          0x0000000000000000        0x0 /usr/local/Cellar/arm-none-eabi-gcc/4.9-2015-q2-update/bin/../lib/gcc/arm-none-eabi/4.9.3/../../../../arm-none-eabi/lib/armv7e-m/libc_nano.a(lib_a-lseekr.o)
 .data          0x0000000000000000        0x0 /usr/local/Cellar/arm-none-eabi-gcc/4.9-2015-q2-update/bin/../lib/gcc/arm-none-eabi/4.9.3/../../../../arm-none-eabi/lib/armv7e-m/libc_nano.a(lib_a-lseekr.o)
 .bss           0x0000000000000000        0x0 /usr/local/Cellar/arm-none-eabi-gcc/4.9-2015-q2-update/bin/../lib/gcc/arm-none-eabi/4.9.3/../../../../arm-none-eabi/lib/armv7e-m/libc_nano.a(lib_a-lseekr.o)
 .text          0x0000000000000000        0x0 /usr/local/Cellar/arm-none-eabi-gcc/4.9-2015-q2-update/bin/../lib/gcc/arm-none-eabi/4.9.3/../../../../arm-none-eabi/lib/armv7e-m/libc_nano.a(lib_a-makebuf.o)
 .data          0x0000000000000000        0x0 /usr/local/Cellar/arm-none-eabi-gcc/4.9-2015-q2-update/bin/../lib/gcc/arm-none-eabi/4.9.3/../../../../arm-none-eabi/lib/armv7e-m/libc_nano.a(lib_a-makebuf.o)
 .bss           0x0000000000000000        0x0 /usr/local/Cellar/arm-none-eabi-gcc/4.9-2015-q2-update/bin/../lib/gcc/arm-none-eabi/4.9.3/../../../../arm-none-eabi/lib/armv7e-m/libc_nano.a(lib_a-makebuf.o)
 .text          0x0000000000000000        0x0 /usr/local/Cellar/arm-none-eabi-gcc/4.9-2015-q2-update/bin/../lib/gcc/arm-none-eabi/4.9.3/../../../../arm-none-eabi/lib/armv7e-m/libc_nano.a(lib_a-memchr.o)
 .data          0x0000000000000000        0x0 /usr/local/Cellar/arm-none-eabi-gcc/4.9-2015-q2-update/bin/../lib/gcc/arm-none-eabi/4.9.3/../../../../arm-none-eabi/lib/armv7e-m/libc_nano.a(lib_a-memchr.o)
 .bss           0x0000000000000000        0x0 /usr/local/Cellar/arm-none-eabi-gcc/4.9-2015-q2-update/bin/../lib/gcc/arm-none-eabi/4.9.3/../../../../arm-none-eabi/lib/armv7e-m/libc_nano.a(lib_a-memchr.o)
 .text          0x0000000000000000        0x0 /usr/local/Cellar/arm-none-eabi-gcc/4.9-2015-q2-update/bin/../lib/gcc/arm-none-eabi/4.9.3/../../../../arm-none-eabi/lib/armv7e-m/libc_nano.a(lib_a-memmove.o)
 .data          0x0000000000000000        0x0 /usr/local/Cellar/arm-none-eabi-gcc/4.9-2015-q2-update/bin/../lib/gcc/arm-none-eabi/4.9.3/../../../../arm-none-eabi/lib/armv7e-m/libc_nano.a(lib_a-memmove.o)
 .bss           0x0000000000000000        0x0 /usr/local/Cellar/arm-none-eabi-gcc/4.9-2015-q2-update/bin/../lib/gcc/arm-none-eabi/4.9.3/../../../../arm-none-eabi/lib/armv7e-m/libc_nano.a(lib_a-memmove.o)
 .text.memmove  0x0000000000000000       0x36 /usr/local/Cellar/arm-none-eabi-gcc/4.9-2015-q2-update/bin/../lib/gcc/arm-none-eabi/4.9.3/../../../../arm-none-eabi/lib/armv7e-m/libc_nano.a(lib_a-memmove.o)
 .debug_frame   0x0000000000000000       0x28 /usr/local/Cellar/arm-none-eabi-gcc/4.9-2015-q2-update/bin/../lib/gcc/arm-none-eabi/4.9.3/../../../../arm-none-eabi/lib/armv7e-m/libc_nano.a(lib_a-memmove.o)
 .ARM.attributes
                0x0000000000000000       0x2e /usr/local/Cellar/arm-none-eabi-gcc/4.9-2015-q2-update/bin/../lib/gcc/arm-none-eabi/4.9.3/../../../../arm-none-eabi/lib/armv7e-m/libc_nano.a(lib_a-memmove.o)
 .text          0x0000000000000000        0x0 /usr/local/Cellar/arm-none-eabi-gcc/4.9-2015-q2-update/bin/../lib/gcc/arm-none-eabi/4.9.3/../../../../arm-none-eabi/lib/armv7e-m/libc_nano.a(lib_a-nano-svfscanf.o)
 .data          0x0000000000000000        0x0 /usr/local/Cellar/arm-none-eabi-gcc/4.9-2015-q2-update/bin/../lib/gcc/arm-none-eabi/4.9.3/../../../../arm-none-eabi/lib/armv7e-m/libc_nano.a(lib_a-nano-svfscanf.o)
 .bss           0x0000000000000000        0x0 /usr/local/Cellar/arm-none-eabi-gcc/4.9-2015-q2-update/bin/../lib/gcc/arm-none-eabi/4.9.3/../../../../arm-none-eabi/lib/armv7e-m/libc_nano.a(lib_a-nano-svfscanf.o)
 .text._sungetc_r
                0x0000000000000000       0x7a /usr/local/Cellar/arm-none-eabi-gcc/4.9-2015-q2-update/bin/../lib/gcc/arm-none-eabi/4.9.3/../../../../arm-none-eabi/lib/armv7e-m/libc_nano.a(lib_a-nano-svfscanf.o)
 .text.__ssrefill_r
                0x0000000000000000       0x3a /usr/local/Cellar/arm-none-eabi-gcc/4.9-2015-q2-update/bin/../lib/gcc/arm-none-eabi/4.9.3/../../../../arm-none-eabi/lib/armv7e-m/libc_nano.a(lib_a-nano-svfscanf.o)
 .text.__ssvfscanf_r
                0x0000000000000000      0x29c /usr/local/Cellar/arm-none-eabi-gcc/4.9-2015-q2-update/bin/../lib/gcc/arm-none-eabi/4.9.3/../../../../arm-none-eabi/lib/armv7e-m/libc_nano.a(lib_a-nano-svfscanf.o)
 .rodata.str1.1
                0x0000000000000000        0x4 /usr/local/Cellar/arm-none-eabi-gcc/4.9-2015-q2-update/bin/../lib/gcc/arm-none-eabi/4.9.3/../../../../arm-none-eabi/lib/armv7e-m/libc_nano.a(lib_a-nano-svfscanf.o)
 .debug_frame   0x0000000000000000       0x70 /usr/local/Cellar/arm-none-eabi-gcc/4.9-2015-q2-update/bin/../lib/gcc/arm-none-eabi/4.9.3/../../../../arm-none-eabi/lib/armv7e-m/libc_nano.a(lib_a-nano-svfscanf.o)
 .ARM.attributes
                0x0000000000000000       0x2e /usr/local/Cellar/arm-none-eabi-gcc/4.9-2015-q2-update/bin/../lib/gcc/arm-none-eabi/4.9.3/../../../../arm-none-eabi/lib/armv7e-m/libc_nano.a(lib_a-nano-svfscanf.o)
 .text          0x0000000000000000        0x0 /usr/local/Cellar/arm-none-eabi-gcc/4.9-2015-q2-update/bin/../lib/gcc/arm-none-eabi/4.9.3/../../../../arm-none-eabi/lib/armv7e-m/libc_nano.a(lib_a-nano-vfscanf_i.o)
 .data          0x0000000000000000        0x0 /usr/local/Cellar/arm-none-eabi-gcc/4.9-2015-q2-update/bin/../lib/gcc/arm-none-eabi/4.9.3/../../../../arm-none-eabi/lib/armv7e-m/libc_nano.a(lib_a-nano-vfscanf_i.o)
 .bss           0x0000000000000000        0x0 /usr/local/Cellar/arm-none-eabi-gcc/4.9-2015-q2-update/bin/../lib/gcc/arm-none-eabi/4.9.3/../../../../arm-none-eabi/lib/armv7e-m/libc_nano.a(lib_a-nano-vfscanf_i.o)
 .text._scanf_chars
                0x0000000000000000       0xc0 /usr/local/Cellar/arm-none-eabi-gcc/4.9-2015-q2-update/bin/../lib/gcc/arm-none-eabi/4.9.3/../../../../arm-none-eabi/lib/armv7e-m/libc_nano.a(lib_a-nano-vfscanf_i.o)
 .text._scanf_i
                0x0000000000000000      0x1e4 /usr/local/Cellar/arm-none-eabi-gcc/4.9-2015-q2-update/bin/../lib/gcc/arm-none-eabi/4.9.3/../../../../arm-none-eabi/lib/armv7e-m/libc_nano.a(lib_a-nano-vfscanf_i.o)
 .rodata        0x0000000000000000        0xc /usr/local/Cellar/arm-none-eabi-gcc/4.9-2015-q2-update/bin/../lib/gcc/arm-none-eabi/4.9.3/../../../../arm-none-eabi/lib/armv7e-m/libc_nano.a(lib_a-nano-vfscanf_i.o)
 .rodata.str1.1
                0x0000000000000000       0x1b /usr/local/Cellar/arm-none-eabi-gcc/4.9-2015-q2-update/bin/../lib/gcc/arm-none-eabi/4.9.3/../../../../arm-none-eabi/lib/armv7e-m/libc_nano.a(lib_a-nano-vfscanf_i.o)
 .debug_frame   0x0000000000000000       0x5c /usr/local/Cellar/arm-none-eabi-gcc/4.9-2015-q2-update/bin/../lib/gcc/arm-none-eabi/4.9.3/../../../../arm-none-eabi/lib/armv7e-m/libc_nano.a(lib_a-nano-vfscanf_i.o)
 .ARM.attributes
                0x0000000000000000       0x2e /usr/local/Cellar/arm-none-eabi-gcc/4.9-2015-q2-update/bin/../lib/gcc/arm-none-eabi/4.9.3/../../../../arm-none-eabi/lib/armv7e-m/libc_nano.a(lib_a-nano-vfscanf_i.o)
 .text          0x0000000000000000        0x0 /usr/local/Cellar/arm-none-eabi-gcc/4.9-2015-q2-update/bin/../lib/gcc/arm-none-eabi/4.9.3/../../../../arm-none-eabi/lib/armv7e-m/libc_nano.a(lib_a-readr.o)
 .data          0x0000000000000000        0x0 /usr/local/Cellar/arm-none-eabi-gcc/4.9-2015-q2-update/bin/../lib/gcc/arm-none-eabi/4.9.3/../../../../arm-none-eabi/lib/armv7e-m/libc_nano.a(lib_a-readr.o)
 .bss           0x0000000000000000        0x0 /usr/local/Cellar/arm-none-eabi-gcc/4.9-2015-q2-update/bin/../lib/gcc/arm-none-eabi/4.9.3/../../../../arm-none-eabi/lib/armv7e-m/libc_nano.a(lib_a-readr.o)
 .text          0x0000000000000000        0x0 /usr/local/Cellar/arm-none-eabi-gcc/4.9-2015-q2-update/bin/../lib/gcc/arm-none-eabi/4.9.3/../../../../arm-none-eabi/lib/armv7e-m/libc_nano.a(lib_a-reent.o)
 .data          0x0000000000000000        0x0 /usr/local/Cellar/arm-none-eabi-gcc/4.9-2015-q2-update/bin/../lib/gcc/arm-none-eabi/4.9.3/../../../../arm-none-eabi/lib/armv7e-m/libc_nano.a(lib_a-reent.o)
 .bss           0x0000000000000000        0x0 /usr/local/Cellar/arm-none-eabi-gcc/4.9-2015-q2-update/bin/../lib/gcc/arm-none-eabi/4.9.3/../../../../arm-none-eabi/lib/armv7e-m/libc_nano.a(lib_a-reent.o)
 .text.cleanup_glue
                0x0000000000000000       0x1a /usr/local/Cellar/arm-none-eabi-gcc/4.9-2015-q2-update/bin/../lib/gcc/arm-none-eabi/4.9.3/../../../../arm-none-eabi/lib/armv7e-m/libc_nano.a(lib_a-reent.o)
 .text._reclaim_reent
                0x0000000000000000       0xb4 /usr/local/Cellar/arm-none-eabi-gcc/4.9-2015-q2-update/bin/../lib/gcc/arm-none-eabi/4.9.3/../../../../arm-none-eabi/lib/armv7e-m/libc_nano.a(lib_a-reent.o)
 .text          0x0000000000000000        0x0 /usr/local/Cellar/arm-none-eabi-gcc/4.9-2015-q2-update/bin/../lib/gcc/arm-none-eabi/4.9.3/../../../../arm-none-eabi/lib/armv7e-m/libc_nano.a(lib_a-sccl.o)
 .data          0x0000000000000000        0x0 /usr/local/Cellar/arm-none-eabi-gcc/4.9-2015-q2-update/bin/../lib/gcc/arm-none-eabi/4.9.3/../../../../arm-none-eabi/lib/armv7e-m/libc_nano.a(lib_a-sccl.o)
 .bss           0x0000000000000000        0x0 /usr/local/Cellar/arm-none-eabi-gcc/4.9-2015-q2-update/bin/../lib/gcc/arm-none-eabi/4.9.3/../../../../arm-none-eabi/lib/armv7e-m/libc_nano.a(lib_a-sccl.o)
 .text.__sccl   0x0000000000000000       0x64 /usr/local/Cellar/arm-none-eabi-gcc/4.9-2015-q2-update/bin/../lib/gcc/arm-none-eabi/4.9.3/../../../../arm-none-eabi/lib/armv7e-m/libc_nano.a(lib_a-sccl.o)
 .debug_frame   0x0000000000000000       0x30 /usr/local/Cellar/arm-none-eabi-gcc/4.9-2015-q2-update/bin/../lib/gcc/arm-none-eabi/4.9.3/../../../../arm-none-eabi/lib/armv7e-m/libc_nano.a(lib_a-sccl.o)
 .ARM.attributes
                0x0000000000000000       0x2e /usr/local/Cellar/arm-none-eabi-gcc/4.9-2015-q2-update/bin/../lib/gcc/arm-none-eabi/4.9.3/../../../../arm-none-eabi/lib/armv7e-m/libc_nano.a(lib_a-sccl.o)
 .text          0x0000000000000000        0x0 /usr/local/Cellar/arm-none-eabi-gcc/4.9-2015-q2-update/bin/../lib/gcc/arm-none-eabi/4.9.3/../../../../arm-none-eabi/lib/armv7e-m/libc_nano.a(lib_a-strtol.o)
 .data          0x0000000000000000        0x0 /usr/local/Cellar/arm-none-eabi-gcc/4.9-2015-q2-update/bin/../lib/gcc/arm-none-eabi/4.9.3/../../../../arm-none-eabi/lib/armv7e-m/libc_nano.a(lib_a-strtol.o)
 .bss           0x0000000000000000        0x0 /usr/local/Cellar/arm-none-eabi-gcc/4.9-2015-q2-update/bin/../lib/gcc/arm-none-eabi/4.9.3/../../../../arm-none-eabi/lib/armv7e-m/libc_nano.a(lib_a-strtol.o)
 .text._strtol_r
                0x0000000000000000      0x10c /usr/local/Cellar/arm-none-eabi-gcc/4.9-2015-q2-update/bin/../lib/gcc/arm-none-eabi/4.9.3/../../../../arm-none-eabi/lib/armv7e-m/libc_nano.a(lib_a-strtol.o)
 .text.strtol   0x0000000000000000       0x1c /usr/local/Cellar/arm-none-eabi-gcc/4.9-2015-q2-update/bin/../lib/gcc/arm-none-eabi/4.9.3/../../../../arm-none-eabi/lib/armv7e-m/libc_nano.a(lib_a-strtol.o)
 .debug_frame   0x0000000000000000       0x54 /usr/local/Cellar/arm-none-eabi-gcc/4.9-2015-q2-update/bin/../lib/gcc/arm-none-eabi/4.9.3/../../../../arm-none-eabi/lib/armv7e-m/libc_nano.a(lib_a-strtol.o)
 .ARM.attributes
                0x0000000000000000       0x2e /usr/local/Cellar/arm-none-eabi-gcc/4.9-2015-q2-update/bin/../lib/gcc/arm-none-eabi/4.9.3/../../../../arm-none-eabi/lib/armv7e-m/libc_nano.a(lib_a-strtol.o)
 .text          0x0000000000000000        0x0 /usr/local/Cellar/arm-none-eabi-gcc/4.9-2015-q2-update/bin/../lib/gcc/arm-none-eabi/4.9.3/../../../../arm-none-eabi/lib/armv7e-m/libc_nano.a(lib_a-strtoul.o)
 .data          0x0000000000000000        0x0 /usr/local/Cellar/arm-none-eabi-gcc/4.9-2015-q2-update/bin/../lib/gcc/arm-none-eabi/4.9.3/../../../../arm-none-eabi/lib/armv7e-m/libc_nano.a(lib_a-strtoul.o)
 .bss           0x0000000000000000        0x0 /usr/local/Cellar/arm-none-eabi-gcc/4.9-2015-q2-update/bin/../lib/gcc/arm-none-eabi/4.9.3/../../../../arm-none-eabi/lib/armv7e-m/libc_nano.a(lib_a-strtoul.o)
 .text._strtoul_r
                0x0000000000000000       0xf8 /usr/local/Cellar/arm-none-eabi-gcc/4.9-2015-q2-update/bin/../lib/gcc/arm-none-eabi/4.9.3/../../../../arm-none-eabi/lib/armv7e-m/libc_nano.a(lib_a-strtoul.o)
 .text.strtoul  0x0000000000000000       0x1c /usr/local/Cellar/arm-none-eabi-gcc/4.9-2015-q2-update/bin/../lib/gcc/arm-none-eabi/4.9.3/../../../../arm-none-eabi/lib/armv7e-m/libc_nano.a(lib_a-strtoul.o)
 .debug_frame   0x0000000000000000       0x54 /usr/local/Cellar/arm-none-eabi-gcc/4.9-2015-q2-update/bin/../lib/gcc/arm-none-eabi/4.9.3/../../../../arm-none-eabi/lib/armv7e-m/libc_nano.a(lib_a-strtoul.o)
 .ARM.attributes
                0x0000000000000000       0x2e /usr/local/Cellar/arm-none-eabi-gcc/4.9-2015-q2-update/bin/../lib/gcc/arm-none-eabi/4.9.3/../../../../arm-none-eabi/lib/armv7e-m/libc_nano.a(lib_a-strtoul.o)
 .text          0x0000000000000000        0x0 /usr/local/Cellar/arm-none-eabi-gcc/4.9-2015-q2-update/bin/../lib/gcc/arm-none-eabi/4.9.3/../../../../arm-none-eabi/lib/armv7e-m/libc_nano.a(lib_a-ungetc.o)
 .data          0x0000000000000000        0x0 /usr/local/Cellar/arm-none-eabi-gcc/4.9-2015-q2-update/bin/../lib/gcc/arm-none-eabi/4.9.3/../../../../arm-none-eabi/lib/armv7e-m/libc_nano.a(lib_a-ungetc.o)
 .bss           0x0000000000000000        0x0 /usr/local/Cellar/arm-none-eabi-gcc/4.9-2015-q2-update/bin/../lib/gcc/arm-none-eabi/4.9.3/../../../../arm-none-eabi/lib/armv7e-m/libc_nano.a(lib_a-ungetc.o)
 .text.__submore
                0x0000000000000000       0x76 /usr/local/Cellar/arm-none-eabi-gcc/4.9-2015-q2-update/bin/../lib/gcc/arm-none-eabi/4.9.3/../../../../arm-none-eabi/lib/armv7e-m/libc_nano.a(lib_a-ungetc.o)
 .text._ungetc_r
                0x0000000000000000       0xe4 /usr/local/Cellar/arm-none-eabi-gcc/4.9-2015-q2-update/bin/../lib/gcc/arm-none-eabi/4.9.3/../../../../arm-none-eabi/lib/armv7e-m/libc_nano.a(lib_a-ungetc.o)
 .text.ungetc   0x0000000000000000       0x14 /usr/local/Cellar/arm-none-eabi-gcc/4.9-2015-q2-update/bin/../lib/gcc/arm-none-eabi/4.9.3/../../../../arm-none-eabi/lib/armv7e-m/libc_nano.a(lib_a-ungetc.o)
 .debug_frame   0x0000000000000000       0x5c /usr/local/Cellar/arm-none-eabi-gcc/4.9-2015-q2-update/bin/../lib/gcc/arm-none-eabi/4.9.3/../../../../arm-none-eabi/lib/armv7e-m/libc_nano.a(lib_a-ungetc.o)
 .ARM.attributes
                0x0000000000000000       0x2e /usr/local/Cellar/arm-none-eabi-gcc/4.9-2015-q2-update/bin/../lib/gcc/arm-none-eabi/4.9.3/../../../../arm-none-eabi/lib/armv7e-m/libc_nano.a(lib_a-ungetc.o)
 .text          0x0000000000000000        0x0 /usr/local/Cellar/arm-none-eabi-gcc/4.9-2015-q2-update/bin/../lib/gcc/arm-none-eabi/4.9.3/../../../../arm-none-eabi/lib/armv7e-m/libc_nano.a(lib_a-ctype_.o)
 .data          0x0000000000000000        0x0 /usr/local/Cellar/arm-none-eabi-gcc/4.9-2015-q2-update/bin/../lib/gcc/arm-none-eabi/4.9.3/../../../../arm-none-eabi/lib/armv7e-m/libc_nano.a(lib_a-ctype_.o)
 .bss           0x0000000000000000        0x0 /usr/local/Cellar/arm-none-eabi-gcc/4.9-2015-q2-update/bin/../lib/gcc/arm-none-eabi/4.9.3/../../../../arm-none-eabi/lib/armv7e-m/libc_nano.a(lib_a-ctype_.o)
 .data.__ctype_ptr__
                0x0000000000000000        0x4 /usr/local/Cellar/arm-none-eabi-gcc/4.9-2015-q2-update/bin/../lib/gcc/arm-none-eabi/4.9.3/../../../../arm-none-eabi/lib/armv7e-m/libc_nano.a(lib_a-ctype_.o)
 .rodata._ctype_
                0x0000000000000000      0x101 /usr/local/Cellar/arm-none-eabi-gcc/4.9-2015-q2-update/bin/../lib/gcc/arm-none-eabi/4.9.3/../../../../arm-none-eabi/lib/armv7e-m/libc_nano.a(lib_a-ctype_.o)
 .ARM.attributes
                0x0000000000000000       0x2e /usr/local/Cellar/arm-none-eabi-gcc/4.9-2015-q2-update/bin/../lib/gcc/arm-none-eabi/4.9.3/../../../../arm-none-eabi/lib/armv7e-m/libc_nano.a(lib_a-ctype_.o)
 .text          0x0000000000000000        0x0 /usr/local/Cellar/arm-none-eabi-gcc/4.9-2015-q2-update/bin/../lib/gcc/arm-none-eabi/4.9.3/../../../../arm-none-eabi/lib/armv7e-m/libc_nano.a(lib_a-fstatr.o)
 .data          0x0000000000000000        0x0 /usr/local/Cellar/arm-none-eabi-gcc/4.9-2015-q2-update/bin/../lib/gcc/arm-none-eabi/4.9.3/../../../../arm-none-eabi/lib/armv7e-m/libc_nano.a(lib_a-fstatr.o)
 .bss           0x0000000000000000        0x0 /usr/local/Cellar/arm-none-eabi-gcc/4.9-2015-q2-update/bin/../lib/gcc/arm-none-eabi/4.9.3/../../../../arm-none-eabi/lib/armv7e-m/libc_nano.a(lib_a-fstatr.o)
 .text          0x0000000000000000        0x0 /usr/local/Cellar/arm-none-eabi-gcc/4.9-2015-q2-update/bin/../lib/gcc/arm-none-eabi/4.9.3/../../../../arm-none-eabi/lib/armv7e-m/libc_nano.a(lib_a-isattyr.o)
 .data          0x0000000000000000        0x0 /usr/local/Cellar/arm-none-eabi-gcc/4.9-2015-q2-update/bin/../lib/gcc/arm-none-eabi/4.9.3/../../../../arm-none-eabi/lib/armv7e-m/libc_nano.a(lib_a-isattyr.o)
 .bss           0x0000000000000000        0x0 /usr/local/Cellar/arm-none-eabi-gcc/4.9-2015-q2-update/bin/../lib/gcc/arm-none-eabi/4.9.3/../../../../arm-none-eabi/lib/armv7e-m/libc_nano.a(lib_a-isattyr.o)
 .data          0x0000000000000000        0x0 /usr/local/Cellar/arm-none-eabi-gcc/4.9-2015-q2-update/bin/../lib/gcc/arm-none-eabi/4.9.3/armv7e-m/libgcc.a(_arm_cmpdf2.o)
 .bss           0x0000000000000000        0x0 /usr/local/Cellar/arm-none-eabi-gcc/4.9-2015-q2-update/bin/../lib/gcc/arm-none-eabi/4.9.3/armv7e-m/libgcc.a(_arm_cmpdf2.o)
 .group         0x0000000000000000        0x8 ym/core-util/source/core-util.a(sbrk.cpp.o)
 .text          0x0000000000000000        0x0 ym/core-util/source/core-util.a(sbrk.cpp.o)
 .data          0x0000000000000000        0x0 ym/core-util/source/core-util.a(sbrk.cpp.o)
 .bss           0x0000000000000000        0x0 ym/core-util/source/core-util.a(sbrk.cpp.o)
 .text          0x0000000000000000        0x0 ym/ualloc/source/ualloc.a(malloc.c.o)
 .data          0x0000000000000000        0x0 ym/ualloc/source/ualloc.a(malloc.c.o)
 .bss           0x0000000000000000        0x0 ym/ualloc/source/ualloc.a(malloc.c.o)
 .text.__wrap__calloc_r
                0x0000000000000000        0xe ym/ualloc/source/ualloc.a(malloc.c.o)
 .text.__wrap__realloc_r
                0x0000000000000000        0xe ym/ualloc/source/ualloc.a(malloc.c.o)
 .text.__wrap__sbrk_r
                0x0000000000000000        0x6 ym/ualloc/source/ualloc.a(malloc.c.o)
 .text          0x0000000000000000        0x0 ym/cmsis-core/source/cmsis-core.a(cmsis_nvic.c.o)
 .data          0x0000000000000000        0x0 ym/cmsis-core/source/cmsis-core.a(cmsis_nvic.c.o)
 .bss           0x0000000000000000        0x0 ym/cmsis-core/source/cmsis-core.a(cmsis_nvic.c.o)
 .text.NVIC_GetVector
                0x0000000000000000       0x10 ym/cmsis-core/source/cmsis-core.a(cmsis_nvic.c.o)
 .text          0x0000000000000000        0x0 /usr/local/Cellar/arm-none-eabi-gcc/4.9-2015-q2-update/bin/../lib/gcc/arm-none-eabi/4.9.3/armv7e-m/crtend.o
 .data          0x0000000000000000        0x0 /usr/local/Cellar/arm-none-eabi-gcc/4.9-2015-q2-update/bin/../lib/gcc/arm-none-eabi/4.9.3/armv7e-m/crtend.o
 .bss           0x0000000000000000        0x0 /usr/local/Cellar/arm-none-eabi-gcc/4.9-2015-q2-update/bin/../lib/gcc/arm-none-eabi/4.9.3/armv7e-m/crtend.o
 .jcr           0x0000000000000000        0x4 /usr/local/Cellar/arm-none-eabi-gcc/4.9-2015-q2-update/bin/../lib/gcc/arm-none-eabi/4.9.3/armv7e-m/crtend.o
 .text          0x0000000000000000        0x0 /usr/local/Cellar/arm-none-eabi-gcc/4.9-2015-q2-update/bin/../lib/gcc/arm-none-eabi/4.9.3/armv7e-m/crtn.o
 .data          0x0000000000000000        0x0 /usr/local/Cellar/arm-none-eabi-gcc/4.9-2015-q2-update/bin/../lib/gcc/arm-none-eabi/4.9.3/armv7e-m/crtn.o
 .bss           0x0000000000000000        0x0 /usr/local/Cellar/arm-none-eabi-gcc/4.9-2015-q2-update/bin/../lib/gcc/arm-none-eabi/4.9.3/armv7e-m/crtn.o

Memory Configuration

Name             Origin             Length             Attributes
VECTORS          0x0000000000000000 0x0000000000000400 xr
FLASH_PROTECTION 0x0000000000000400 0x0000000000000010 xr
FLASH            0x0000000000000410 0x00000000000ffbf0 xr
RAM              0x000000001fff0200 0x000000000003fe00 xrw
*default*        0x0000000000000000 0xffffffffffffffff

Linker script and memory map

LOAD /usr/local/Cellar/arm-none-eabi-gcc/4.9-2015-q2-update/bin/../lib/gcc/arm-none-eabi/4.9.3/armv7e-m/crti.o
LOAD /usr/local/Cellar/arm-none-eabi-gcc/4.9-2015-q2-update/bin/../lib/gcc/arm-none-eabi/4.9.3/armv7e-m/crtbegin.o
LOAD /usr/local/Cellar/arm-none-eabi-gcc/4.9-2015-q2-update/bin/../lib/gcc/arm-none-eabi/4.9.3/../../../../arm-none-eabi/lib/armv7e-m/crt0.o
START GROUP
LOAD test/CMakeFiles/ds1820-mbedos-test-sense.dir/Users/andrewbrannan/converge/code/DS1820-mbedOS/test/sense.cpp.o
LOAD ym/mbed-drivers/source/mbed-drivers.a
LOAD source/ds1820-mbedos.a
LOAD ym/mbed-drivers/source/mbed-drivers.a
LOAD ym/mbed-hal/source/mbed-hal.a
LOAD ym/minar/source/minar.a
LOAD ym/core-util/source/core-util.a
LOAD ym/mbed-hal-freescale/yotta_dummy_lib_mbed_hal_freescale/mbed-hal-freescale.a
LOAD ym/minar-platform/yotta_dummy_lib_minar_platform/minar-platform.a
LOAD ym/mbed-hal-ksdk-mcu/source/mbed-hal-ksdk-mcu.a
LOAD ym/minar-platform-mbed/source/minar-platform-mbed.a
LOAD ym/mbed-hal-k64f/source/mbed-hal-k64f.a
LOAD ym/mbed-hal-frdm-k64f/source/mbed-hal-frdm-k64f.a
LOAD ym/mbed-drivers/source/mbed-drivers.a
LOAD ym/mbed-hal/source/mbed-hal.a
LOAD ym/minar/source/minar.a
LOAD ym/core-util/source/core-util.a
LOAD ym/mbed-hal-freescale/yotta_dummy_lib_mbed_hal_freescale/mbed-hal-freescale.a
LOAD ym/minar-platform/yotta_dummy_lib_minar_platform/minar-platform.a
LOAD ym/mbed-hal-ksdk-mcu/source/mbed-hal-ksdk-mcu.a
LOAD ym/minar-platform-mbed/source/minar-platform-mbed.a
LOAD ym/mbed-hal-k64f/source/mbed-hal-k64f.a
LOAD ym/mbed-hal-frdm-k64f/source/mbed-hal-frdm-k64f.a
LOAD ym/compiler-polyfill/yotta_dummy_lib_compiler_polyfill/compiler-polyfill.a
LOAD ym/ualloc/source/ualloc.a
LOAD ym/dlmalloc/source/dlmalloc.a
LOAD ym/cmsis-core/source/cmsis-core.a
LOAD ym/cmsis-core-freescale/yotta_dummy_lib_cmsis_core_freescale/cmsis-core-freescale.a
LOAD ym/cmsis-core-k64f/source/cmsis-core-k64f.a
LOAD ym/cmsis-core/source/cmsis-core.a
LOAD ym/cmsis-core-freescale/yotta_dummy_lib_cmsis_core_freescale/cmsis-core-freescale.a
LOAD ym/cmsis-core-k64f/source/cmsis-core-k64f.a
LOAD ym/uvisor-lib/source/uvisor-lib.a
LOAD /usr/local/Cellar/arm-none-eabi-gcc/4.9-2015-q2-update/bin/../lib/gcc/arm-none-eabi/4.9.3/../../../../arm-none-eabi/lib/armv7e-m/libstdc++_nano.a
LOAD /usr/local/Cellar/arm-none-eabi-gcc/4.9-2015-q2-update/bin/../lib/gcc/arm-none-eabi/4.9.3/../../../../arm-none-eabi/lib/armv7e-m/libsupc++_nano.a
LOAD /usr/local/Cellar/arm-none-eabi-gcc/4.9-2015-q2-update/bin/../lib/gcc/arm-none-eabi/4.9.3/armv7e-m/libgcc.a
LOAD /usr/local/Cellar/arm-none-eabi-gcc/4.9-2015-q2-update/bin/../lib/gcc/arm-none-eabi/4.9.3/../../../../arm-none-eabi/lib/armv7e-m/libstdc++_nano.a
LOAD /usr/local/Cellar/arm-none-eabi-gcc/4.9-2015-q2-update/bin/../lib/gcc/arm-none-eabi/4.9.3/../../../../arm-none-eabi/lib/armv7e-m/libsupc++_nano.a
LOAD /usr/local/Cellar/arm-none-eabi-gcc/4.9-2015-q2-update/bin/../lib/gcc/arm-none-eabi/4.9.3/../../../../arm-none-eabi/lib/armv7e-m/libm.a
LOAD /usr/local/Cellar/arm-none-eabi-gcc/4.9-2015-q2-update/bin/../lib/gcc/arm-none-eabi/4.9.3/../../../../arm-none-eabi/lib/armv7e-m/libc_nano.a
LOAD /usr/local/Cellar/arm-none-eabi-gcc/4.9-2015-q2-update/bin/../lib/gcc/arm-none-eabi/4.9.3/armv7e-m/libgcc.a
END GROUP
LOAD /usr/local/Cellar/arm-none-eabi-gcc/4.9-2015-q2-update/bin/../lib/gcc/arm-none-eabi/4.9.3/../../../../arm-none-eabi/lib/armv7e-m/libstdc++_nano.a
LOAD /usr/local/Cellar/arm-none-eabi-gcc/4.9-2015-q2-update/bin/../lib/gcc/arm-none-eabi/4.9.3/../../../../arm-none-eabi/lib/armv7e-m/libm.a
LOAD /usr/local/Cellar/arm-none-eabi-gcc/4.9-2015-q2-update/bin/../lib/gcc/arm-none-eabi/4.9.3/../../../../arm-none-eabi/lib/armv7e-m/libc_nano.a
START GROUP
LOAD /usr/local/Cellar/arm-none-eabi-gcc/4.9-2015-q2-update/bin/../lib/gcc/arm-none-eabi/4.9.3/armv7e-m/libgcc.a
LOAD /usr/local/Cellar/arm-none-eabi-gcc/4.9-2015-q2-update/bin/../lib/gcc/arm-none-eabi/4.9.3/../../../../arm-none-eabi/lib/armv7e-m/libc_nano.a
END GROUP
START GROUP
LOAD /usr/local/Cellar/arm-none-eabi-gcc/4.9-2015-q2-update/bin/../lib/gcc/arm-none-eabi/4.9.3/armv7e-m/libgcc.a
LOAD /usr/local/Cellar/arm-none-eabi-gcc/4.9-2015-q2-update/bin/../lib/gcc/arm-none-eabi/4.9.3/../../../../arm-none-eabi/lib/armv7e-m/libc_nano.a
END GROUP
LOAD /usr/local/Cellar/arm-none-eabi-gcc/4.9-2015-q2-update/bin/../lib/gcc/arm-none-eabi/4.9.3/armv7e-m/crtend.o
LOAD /usr/local/Cellar/arm-none-eabi-gcc/4.9-2015-q2-update/bin/../lib/gcc/arm-none-eabi/4.9.3/armv7e-m/crtn.o

.isr_vector     0x0000000000000000      0x198
                0x0000000000000000                __vector_table = .
 *(SORT(.vector_table))
 .vector_table  0x0000000000000000      0x198 ym/mbed-hal-k64f/source/mbed-hal-k64f.a(startup_MK64F12.S.obj)
                0x0000000000000000                __isr_vector
                0x0000000000000198                . = ALIGN (0x4)

.flash_protect  0x0000000000000400       0x10
 *(SORT(.kinetis_flash_config_field))
 .kinetis_flash_config_field
                0x0000000000000400       0x10 ym/mbed-hal-k64f/source/mbed-hal-k64f.a(startup_MK64F12.S.obj)
                0x0000000000000410                . = ALIGN (0x4)

.uvisor.bss     0x000000001fff0200     0x2000
                0x000000001fff0200                . = ALIGN (0x20)
                0x000000001fff0200                __uvisor_bss_start = .
                0x000000001fff0200                . = ALIGN (0x20)
                0x000000001fff0200                __uvisor_bss_main_start = .
 *(SORT(.keep.uvisor.bss.main))
 .keep.uvisor.bss.main
                0x000000001fff0200     0x2000 ym/uvisor-lib/source/uvisor-lib.a(uvisor.o)
                0x000000001fff2200                . = ALIGN (0x20)
                0x000000001fff2200                __uvisor_bss_main_end = .
                0x000000001fff2200                . = ALIGN (0x20)
                0x000000001fff2200                __uvisor_bss_boxes_start = .
 *(SORT(.keep.uvisor.bss.boxes))
                0x000000001fff2200                . = ALIGN (0x20)
                0x000000001fff2200                __uvisor_bss_boxes_end = .
                0x000000001fff2200                . = ALIGN (0x20)
                0x000000001fff2200                __uvisor_bss_end = .

.text           0x0000000000000410     0x7b1c
                0x0000000000000410                . = ALIGN (0x4)
                0x0000000000000410                __uvisor_main_start = .
 *(SORT(.uvisor.main))
 .uvisor.main   0x0000000000000410     0x1614 ym/uvisor-lib/source/uvisor-lib.a(uvisor.o)
                0x0000000000000410                uvisor_init
                0x00000000000019d8                uvisor_config
                0x0000000000001a20                __uvisor_mode
                0x0000000000001a24                __uvisor_main_end = .
 *(SORT(.text*))
 *fill*         0x0000000000001a24        0x4 
 .text._ZN6DS182011temperatureEc
                0x0000000000001a28      0x12c source/ds1820-mbedos.a(DS1820.cpp.o)
                0x0000000000001a28                DS1820::temperature(char)
 *fill*         0x0000000000001b54        0x4 
 .text.floor    0x0000000000001b58      0x118 /usr/local/Cellar/arm-none-eabi-gcc/4.9-2015-q2-update/bin/../lib/gcc/arm-none-eabi/4.9.3/../../../../arm-none-eabi/lib/armv7e-m/libm.a(lib_a-s_floor.o)
                0x0000000000001b58                floor
 .text          0x0000000000001c70       0x5c /usr/local/Cellar/arm-none-eabi-gcc/4.9-2015-q2-update/bin/../lib/gcc/arm-none-eabi/4.9.3/armv7e-m/crtbegin.o
 .text          0x0000000000001ccc       0x74 /usr/local/Cellar/arm-none-eabi-gcc/4.9-2015-q2-update/bin/../lib/gcc/arm-none-eabi/4.9.3/../../../../arm-none-eabi/lib/armv7e-m/crt0.o
                0x0000000000001ccc                _mainCRTStartup
                0x0000000000001ccc                _start
 .text.app_start
                0x0000000000001d40       0x88 test/CMakeFiles/ds1820-mbedos-test-sense.dir/Users/andrewbrannan/converge/code/DS1820-mbedOS/test/sense.cpp.o
                0x0000000000001d40                app_start
 .text._ZN4mbed4util19FunctionPointerBindIvED2Ev
                0x0000000000001dc8       0x18 ym/mbed-drivers/source/mbed-drivers.a(retarget.cpp.o)
                0x0000000000001dc8                mbed::util::FunctionPointerBind<void>::~FunctionPointerBind()
                0x0000000000001dc8                mbed::util::FunctionPointerBind<void>::~FunctionPointerBind()
 .text._ZN4mbed4util19FunctionPointerBindIvE5clearEv
                0x0000000000001de0       0x24 ym/mbed-drivers/source/mbed-drivers.a(retarget.cpp.o)
                0x0000000000001de0                mbed::util::FunctionPointerBind<void>::clear()
 .text._ZL11init_serialv
                0x0000000000001e04       0x20 ym/mbed-drivers/source/mbed-drivers.a(retarget.cpp.o)
 .text._close   0x0000000000001e24       0x2c ym/mbed-drivers/source/mbed-drivers.a(retarget.cpp.o)
                0x0000000000001e24                _close
 .text._write   0x0000000000001e50       0x50 ym/mbed-drivers/source/mbed-drivers.a(retarget.cpp.o)
                0x0000000000001e50                _write
 .text._read    0x0000000000001ea0       0x44 ym/mbed-drivers/source/mbed-drivers.a(retarget.cpp.o)
                0x0000000000001ea0                _read
 .text._isatty  0x0000000000001ee4       0x24 ym/mbed-drivers/source/mbed-drivers.a(retarget.cpp.o)
                0x0000000000001ee4                _isatty
 .text._lseek   0x0000000000001f08       0x24 ym/mbed-drivers/source/mbed-drivers.a(retarget.cpp.o)
                0x0000000000001f08                _lseek
 .text._ZN4mbed4util19FunctionPointerBindIvE4bindINS0_16FunctionPointer2IviPPcE10arg_structEEERS2_PKNS0_19FunctionPointerBaseIvE6ArgOpsEPT_PSB_z
                0x0000000000001f2c       0x64 ym/mbed-drivers/source/mbed-drivers.a(retarget.cpp.o)
                0x0000000000001f2c                mbed::util::FunctionPointerBind<void>& mbed::util::FunctionPointerBind<void>::bind<mbed::util::FunctionPointer2<void, int, char**>::arg_struct>(mbed::util::FunctionPointerBase<void>::ArgOps const*, mbed::util::FunctionPointer2<void, int, char**>::arg_struct*, mbed::util::FunctionPointerBase<void>*, ...)
 .text.startup.main
                0x0000000000001f90       0x84 ym/mbed-drivers/source/mbed-drivers.a(retarget.cpp.o)
                0x0000000000001f90                main
 .text.exit     0x0000000000002014       0x24 ym/mbed-drivers/source/mbed-drivers.a(exit.c.o)
                0x0000000000002014                exit
 .text.gpio_write
                0x0000000000002038       0x34 ym/mbed-drivers/source/mbed-drivers.a(board.c.o)
 .text.wait     0x000000000000206c       0x18 ym/mbed-drivers/source/mbed-drivers.a(wait_api.c.o)
                0x000000000000206c                wait
 .text.error    0x0000000000002084       0x20 ym/mbed-drivers/source/mbed-drivers.a(error.c.o)
                0x0000000000002084                error
 .text.gpio_write
                0x00000000000020a4       0x34 ym/mbed-drivers/source/mbed-drivers.a(gpio.c.o)
 .text.gpio_read
                0x00000000000020d8       0x3c source/ds1820-mbedos.a(DS1820.cpp.o)
 .text.gpio_write
                0x0000000000002114       0x34 source/ds1820-mbedos.a(DS1820.cpp.o)
 .text._ZN6DS182018search_ROM_routineEPN4mbed12DigitalInOutEcPc
                0x0000000000002148      0x130 source/ds1820-mbedos.a(DS1820.cpp.o)
                0x0000000000002148                DS1820::search_ROM_routine(mbed::DigitalInOut*, char, char*)
 .text._ZN6DS1820C2E7PinNameS0_b
                0x0000000000002278       0x80 source/ds1820-mbedos.a(DS1820.cpp.o)
                0x0000000000002278                DS1820::DS1820(PinName, PinName, bool)
                0x0000000000002278                DS1820::DS1820(PinName, PinName, bool)
 .text.startup._GLOBAL__sub_I__ZN6DS18206probesE
                0x00000000000022f8       0x24 source/ds1820-mbedos.a(DS1820.cpp.o)
 .text._ZN5minar12CallbackNode13get_allocatorEv
                0x000000000000231c       0x48 ym/minar/source/minar.a(minar.cpp.o)
                0x000000000000231c                minar::CallbackNode::get_allocator()
 .text._ZN4mbed4util19FunctionPointerBindIvEC2ERKS2_
                0x0000000000002364       0x58 ym/minar/source/minar.a(minar.cpp.o)
                0x0000000000002364                mbed::util::FunctionPointerBind<void>::FunctionPointerBind(mbed::util::FunctionPointerBind<void> const&)
                0x0000000000002364                mbed::util::FunctionPointerBind<void>::FunctionPointerBind(mbed::util::FunctionPointerBind<void> const&)
 .text._ZNK4mbed4util10BinaryHeapIPN5minar12CallbackNodeENS2_13SchedulerData19CallbackNodeCompareEE8get_rootEv
                0x00000000000023bc       0x28 ym/minar/source/minar.a(minar.cpp.o)
                0x00000000000023bc                mbed::util::BinaryHeap<minar::CallbackNode*, minar::SchedulerData::CallbackNodeCompare>::get_root() const
 .text._ZN5minar13SchedulerDataC2Ev
                0x00000000000023e4       0x60 ym/minar/source/minar.a(minar.cpp.o)
                0x00000000000023e4                minar::SchedulerData::SchedulerData()
                0x00000000000023e4                minar::SchedulerData::SchedulerData()
 .text._ZN5minar9Scheduler8instanceEv
                0x0000000000002444       0x34 ym/minar/source/minar.a(minar.cpp.o)
                0x0000000000002444                minar::Scheduler::instance()
 .text._ZN5minar9Scheduler12postCallbackERKN4mbed4util19FunctionPointerBindIvEE
                0x0000000000002478       0x34 ym/minar/source/minar.a(minar.cpp.o)
                0x0000000000002478                minar::Scheduler::postCallback(mbed::util::FunctionPointerBind<void> const&)
 .text._ZN5minar13SchedulerData5startEv
                0x00000000000024ac      0x18c ym/minar/source/minar.a(minar.cpp.o)
                0x00000000000024ac                minar::SchedulerData::start()
 .text._ZN5minar9Scheduler5startEv
                0x0000000000002638       0x18 ym/minar/source/minar.a(minar.cpp.o)
                0x0000000000002638                minar::Scheduler::start()
 .text._ZN5minar13SchedulerData11postGenericEN4mbed4util19FunctionPointerBindIvEEmmm
                0x0000000000002650       0x5c ym/minar/source/minar.a(minar.cpp.o)
                0x0000000000002650                minar::SchedulerData::postGeneric(mbed::util::FunctionPointerBind<void>, unsigned long, unsigned long, unsigned long)
 .text.core_util_runtime_error_internal
                0x00000000000026ac       0x38 ym/core-util/source/core-util.a(core-util_mbed_os.c.o)
                0x00000000000026ac                core_util_runtime_error_internal
 .text.uart_irq
                0x00000000000026e4       0x38 ym/mbed-hal-ksdk-mcu/source/mbed-hal-ksdk-mcu.a(serial_api.c.o)
 .text.uart1_irq
                0x000000000000271c       0x34 ym/mbed-hal-ksdk-mcu/source/mbed-hal-ksdk-mcu.a(serial_api.c.o)
                0x000000000000271c                uart1_irq
 .text.uart2_irq
                0x0000000000002750       0x34 ym/mbed-hal-ksdk-mcu/source/mbed-hal-ksdk-mcu.a(serial_api.c.o)
                0x0000000000002750                uart2_irq
 .text.uart3_irq
                0x0000000000002784       0x34 ym/mbed-hal-ksdk-mcu/source/mbed-hal-ksdk-mcu.a(serial_api.c.o)
                0x0000000000002784                uart3_irq
 .text.uart4_irq
                0x00000000000027b8       0x34 ym/mbed-hal-ksdk-mcu/source/mbed-hal-ksdk-mcu.a(serial_api.c.o)
                0x00000000000027b8                uart4_irq
 .text.uart0_irq
                0x00000000000027ec       0x48 ym/mbed-hal-ksdk-mcu/source/mbed-hal-ksdk-mcu.a(serial_api.c.o)
                0x00000000000027ec                uart0_irq
 .text.serial_init
                0x0000000000002834      0x190 ym/mbed-hal-ksdk-mcu/source/mbed-hal-ksdk-mcu.a(serial_api.c.o)
                0x0000000000002834                serial_init
 .text.CLOCK_SYS_GetFreq
                0x00000000000029c4       0x90 ym/mbed-hal-ksdk-mcu/source/mbed-hal-ksdk-mcu.a(fsl_clock_manager.c.o)
                0x00000000000029c4                CLOCK_SYS_GetFreq
 .text.CLOCK_SYS_GetSysClkFreq
                0x0000000000002a54       0x5c ym/mbed-hal-ksdk-mcu/source/mbed-hal-ksdk-mcu.a(fsl_clock_manager.c.o)
                0x0000000000002a54                CLOCK_SYS_GetSysClkFreq
 .text.gpio_init
                0x0000000000002ab0       0x68 ym/mbed-hal-ksdk-mcu/source/mbed-hal-ksdk-mcu.a(gpio_api.c.o)
                0x0000000000002ab0                gpio_init
 .text.gpio_dir
                0x0000000000002b18       0x44 ym/mbed-hal-ksdk-mcu/source/mbed-hal-ksdk-mcu.a(gpio_api.c.o)
                0x0000000000002b18                gpio_dir
 .text.PIT_HAL_StartTimer.constprop.5
                0x0000000000002b5c       0x1c ym/mbed-hal-ksdk-mcu/source/mbed-hal-ksdk-mcu.a(us_ticker.c.o)
 .text.PIT_HAL_SetTimerPeriodByCount.constprop.7
                0x0000000000002b78       0x18 ym/mbed-hal-ksdk-mcu/source/mbed-hal-ksdk-mcu.a(us_ticker.c.o)
 .text.us_ticker_init
                0x0000000000002b90       0xb4 ym/mbed-hal-ksdk-mcu/source/mbed-hal-ksdk-mcu.a(us_ticker.c.o)
                0x0000000000002b90                us_ticker_init
 .text.us_ticker_read
                0x0000000000002c44       0x28 ym/mbed-hal-ksdk-mcu/source/mbed-hal-ksdk-mcu.a(us_ticker.c.o)
                0x0000000000002c44                us_ticker_read
 .text.us_ticker_disable_interrupt
                0x0000000000002c6c       0x18 ym/mbed-hal-ksdk-mcu/source/mbed-hal-ksdk-mcu.a(us_ticker.c.o)
                0x0000000000002c6c                us_ticker_disable_interrupt
 .text.us_ticker_clear_interrupt
                0x0000000000002c84       0x18 ym/mbed-hal-ksdk-mcu/source/mbed-hal-ksdk-mcu.a(us_ticker.c.o)
                0x0000000000002c84                us_ticker_clear_interrupt
 .text.us_ticker_set_interrupt
                0x0000000000002c9c       0x60 ym/mbed-hal-ksdk-mcu/source/mbed-hal-ksdk-mcu.a(us_ticker.c.o)
                0x0000000000002c9c                us_ticker_set_interrupt
 .text.CLOCK_HAL_SetSource
                0x0000000000002cfc      0x10c ym/mbed-hal-ksdk-mcu/source/mbed-hal-ksdk-mcu.a(fsl_sim_hal.c.o)
                0x0000000000002cfc                CLOCK_HAL_SetSource
 .text.CLOCK_HAL_GetDivider
                0x0000000000002e08       0xb8 ym/mbed-hal-ksdk-mcu/source/mbed-hal-ksdk-mcu.a(fsl_sim_hal.c.o)
                0x0000000000002e08                CLOCK_HAL_GetDivider
 .text.pin_function
                0x0000000000002ec0       0x6c ym/mbed-hal-ksdk-mcu/source/mbed-hal-ksdk-mcu.a(pinmap.c.o)
                0x0000000000002ec0                pin_function
 .text.pin_mode
                0x0000000000002f2c       0x80 ym/mbed-hal-ksdk-mcu/source/mbed-hal-ksdk-mcu.a(pinmap.c.o)
                0x0000000000002f2c                pin_mode
 .text.CLOCK_HAL_GetFllRefClk
                0x0000000000002fac       0x8c ym/mbed-hal-ksdk-mcu/source/mbed-hal-ksdk-mcu.a(fsl_mcg_hal.c.o)
                0x0000000000002fac                CLOCK_HAL_GetFllRefClk
 .text.CLOCK_HAL_GetPll0Clk
                0x0000000000003038       0x58 ym/mbed-hal-ksdk-mcu/source/mbed-hal-ksdk-mcu.a(fsl_mcg_hal.c.o)
                0x0000000000003038                CLOCK_HAL_GetPll0Clk
 .text.CLOCK_HAL_GetInternalRefClk
                0x0000000000003090       0x40 ym/mbed-hal-ksdk-mcu/source/mbed-hal-ksdk-mcu.a(fsl_mcg_hal.c.o)
                0x0000000000003090                CLOCK_HAL_GetInternalRefClk
 .text.CLOCK_HAL_GetOutClk
                0x00000000000030d0       0x80 ym/mbed-hal-ksdk-mcu/source/mbed-hal-ksdk-mcu.a(fsl_mcg_hal.c.o)
                0x00000000000030d0                CLOCK_HAL_GetOutClk
 .text          0x0000000000003150       0x14 ym/mbed-hal-k64f/source/mbed-hal-k64f.a(startup_MK64F12.S.obj)
                0x0000000000003150                NMI_Handler
                0x0000000000003152                HardFault_Handler
                0x0000000000003154                MemManage_Handler
                0x0000000000003156                BusFault_Handler
                0x0000000000003158                UsageFault_Handler
                0x000000000000315a                SVC_Handler
                0x000000000000315c                DebugMon_Handler
                0x000000000000315e                PendSV_Handler
                0x0000000000003160                SysTick_Handler
                0x0000000000003162                CAN0_ORed_Message_buffer_IRQHandler
                0x0000000000003162                Watchdog_IRQHandler
                0x0000000000003162                CMP2_IRQHandler
                0x0000000000003162                ENET_Receive_IRQHandler
                0x0000000000003162                ENET_1588_Timer_IRQHandler
                0x0000000000003162                UART2_RX_TX_IRQHandler
                0x0000000000003162                SWI_IRQHandler
                0x0000000000003162                ADC0_IRQHandler
                0x0000000000003162                I2S0_Tx_IRQHandler
                0x0000000000003162                CMT_IRQHandler
                0x0000000000003162                UART4_RX_TX_IRQHandler
                0x0000000000003162                SPI1_IRQHandler
                0x0000000000003162                DefaultISR
                0x0000000000003162                DMA9_IRQHandler
                0x0000000000003162                DMA14_IRQHandler
                0x0000000000003162                CMP1_IRQHandler
                0x0000000000003162                Reserved71_IRQHandler
                0x0000000000003162                PORTD_IRQHandler
                0x0000000000003162                PORTB_IRQHandler
                0x0000000000003162                UART4_ERR_IRQHandler
                0x0000000000003162                ADC1_IRQHandler
                0x0000000000003162                I2C2_IRQHandler
                0x0000000000003162                PIT2_IRQHandler
                0x0000000000003162                I2S0_Rx_IRQHandler
                0x0000000000003162                LPTimer_IRQHandler
                0x0000000000003162                DMA5_IRQHandler
                0x0000000000003162                RTC_IRQHandler
                0x0000000000003162                PDB0_IRQHandler
                0x0000000000003162                FTM1_IRQHandler
                0x0000000000003162                UART5_RX_TX_IRQHandler
                0x0000000000003162                UART3_ERR_IRQHandler
                0x0000000000003162                PIT3_IRQHandler
                0x0000000000003162                SDHC_IRQHandler
                0x0000000000003162                RTC_Seconds_IRQHandler
                0x0000000000003162                MCG_IRQHandler
                0x0000000000003162                FTFE_IRQHandler
                0x0000000000003162                UART2_ERR_IRQHandler
                0x0000000000003162                DMA11_IRQHandler
                0x0000000000003162                UART5_ERR_IRQHandler
                0x0000000000003162                Read_Collision_IRQHandler
                0x0000000000003162                Default_Handler
                0x0000000000003162                DMA7_IRQHandler
                0x0000000000003162                ENET_Transmit_IRQHandler
                0x0000000000003162                USBDCD_IRQHandler
                0x0000000000003162                USB0_IRQHandler
                0x0000000000003162                LLW_IRQHandler
                0x0000000000003162                SPI2_IRQHandler
                0x0000000000003162                DMA13_IRQHandler
                0x0000000000003162                DMA3_IRQHandler
                0x0000000000003162                UART0_LON_IRQHandler
                0x0000000000003162                RNG_IRQHandler
                0x0000000000003162                DMA0_IRQHandler
                0x0000000000003162                DMA15_IRQHandler
                0x0000000000003162                DAC0_IRQHandler
                0x0000000000003162                CAN0_Error_IRQHandler
                0x0000000000003162                DMA4_IRQHandler
                0x0000000000003162                PIT1_IRQHandler
                0x0000000000003162                UART0_ERR_IRQHandler
                0x0000000000003162                DMA_Error_IRQHandler
                0x0000000000003162                LVD_LVW_IRQHandler
                0x0000000000003162                SPI0_IRQHandler
                0x0000000000003162                FTM0_IRQHandler
                0x0000000000003162                PORTA_IRQHandler
                0x0000000000003162                DAC1_IRQHandler
                0x0000000000003162                MCM_IRQHandler
                0x0000000000003162                DMA12_IRQHandler
                0x0000000000003162                CAN0_Bus_Off_IRQHandler
                0x0000000000003162                FTM3_IRQHandler
                0x0000000000003162                PORTE_IRQHandler
                0x0000000000003162                FTM2_IRQHandler
                0x0000000000003162                DMA8_IRQHandler
                0x0000000000003162                DMA10_IRQHandler
                0x0000000000003162                CAN0_Wake_Up_IRQHandler
                0x0000000000003162                UART1_ERR_IRQHandler
                0x0000000000003162                UART1_RX_TX_IRQHandler
                0x0000000000003162                CMP0_IRQHandler
                0x0000000000003162                PORTC_IRQHandler
                0x0000000000003162                DMA6_IRQHandler
                0x0000000000003162                CAN0_Rx_Warning_IRQHandler
                0x0000000000003162                DMA1_IRQHandler
                0x0000000000003162                I2C0_IRQHandler
                0x0000000000003162                UART3_RX_TX_IRQHandler
                0x0000000000003162                UART0_RX_TX_IRQHandler
                0x0000000000003162                I2C1_IRQHandler
                0x0000000000003162                DMA2_IRQHandler
                0x0000000000003162                ENET_Error_IRQHandler
                0x0000000000003162                CAN0_Tx_Warning_IRQHandler
                0x0000000000003162                PIT0_IRQHandler
 .text.Reset_Handler
                0x0000000000003164       0x60 ym/mbed-hal-k64f/source/mbed-hal-k64f.a(startup_MK64F12.S.obj)
                0x0000000000003164                Reset_Handler
 .text.SIM_HAL_EnablePortClock
                0x00000000000031c4       0x50 ym/mbed-hal-k64f/source/mbed-hal-k64f.a(fsl_sim_hal_K64F12.c.o)
                0x00000000000031c4                SIM_HAL_EnablePortClock
 .text.SIM_HAL_EnablePitClock
                0x0000000000003214       0x1c ym/mbed-hal-k64f/source/mbed-hal-k64f.a(fsl_sim_hal_K64F12.c.o)
                0x0000000000003214                SIM_HAL_EnablePitClock
 .text.SIM_HAL_EnableLptimerClock
                0x0000000000003230       0x1c ym/mbed-hal-k64f/source/mbed-hal-k64f.a(fsl_sim_hal_K64F12.c.o)
                0x0000000000003230                SIM_HAL_EnableLptimerClock
 .text.SIM_HAL_EnableRtcClock
                0x000000000000324c       0x1c ym/mbed-hal-k64f/source/mbed-hal-k64f.a(fsl_sim_hal_K64F12.c.o)
                0x000000000000324c                SIM_HAL_EnableRtcClock
 .text.SIM_HAL_EnableUartClock
                0x0000000000003268       0x5c ym/mbed-hal-k64f/source/mbed-hal-k64f.a(fsl_sim_hal_K64F12.c.o)
                0x0000000000003268                SIM_HAL_EnableUartClock
 .text.pinmap_pinout
                0x00000000000032c4       0x38 ym/mbed-drivers/source/mbed-drivers.a(pinmap_common.c.o)
                0x00000000000032c4                pinmap_pinout
 .text.pinmap_merge
                0x00000000000032fc       0x24 ym/mbed-drivers/source/mbed-drivers.a(pinmap_common.c.o)
                0x00000000000032fc                pinmap_merge
 .text.pinmap_peripheral
                0x0000000000003320       0x20 ym/mbed-drivers/source/mbed-drivers.a(pinmap_common.c.o)
                0x0000000000003320                pinmap_peripheral
 .text.us_ticker_irq_handler
                0x0000000000003340        0xc ym/mbed-drivers/source/mbed-drivers.a(us_ticker_api.c.o)
                0x0000000000003340                us_ticker_irq_handler
 .text.mbed_enter_sleep
                0x000000000000334c       0x50 ym/mbed-hal-ksdk-mcu/source/mbed-hal-ksdk-mcu.a(sleep.c.o)
                0x000000000000334c                mbed_enter_sleep
 .text.RTC_HAL_GetPrescaler.constprop.1
                0x000000000000339c       0x18 ym/mbed-hal-ksdk-mcu/source/mbed-hal-ksdk-mcu.a(lp_ticker.c.o)
 .text.LPTMR_HAL_SetCompareValue.constprop.2
                0x00000000000033b4       0x30 ym/mbed-hal-ksdk-mcu/source/mbed-hal-ksdk-mcu.a(lp_ticker.c.o)
 .text.lptmr_isr
                0x00000000000033e4       0x18 ym/mbed-hal-ksdk-mcu/source/mbed-hal-ksdk-mcu.a(lp_ticker.c.o)
 .text.RTC_HAL_EnableCounter.constprop.11
                0x00000000000033fc       0x18 ym/mbed-hal-ksdk-mcu/source/mbed-hal-ksdk-mcu.a(lp_ticker.c.o)
 .text.RTC_HAL_SetAlarmReg.constprop.12
                0x0000000000003414       0x18 ym/mbed-hal-ksdk-mcu/source/mbed-hal-ksdk-mcu.a(lp_ticker.c.o)
 .text.RTC_HAL_SetAlarmIntCmd.constprop.14
                0x000000000000342c       0x18 ym/mbed-hal-ksdk-mcu/source/mbed-hal-ksdk-mcu.a(lp_ticker.c.o)
 .text.rct_isr  0x0000000000003444       0x38 ym/mbed-hal-ksdk-mcu/source/mbed-hal-ksdk-mcu.a(lp_ticker.c.o)
 .text.lp_ticker_init
                0x000000000000347c      0x120 ym/mbed-hal-ksdk-mcu/source/mbed-hal-ksdk-mcu.a(lp_ticker.c.o)
                0x000000000000347c                lp_ticker_init
 .text.lp_ticker_read
                0x000000000000359c       0x3c ym/mbed-hal-ksdk-mcu/source/mbed-hal-ksdk-mcu.a(lp_ticker.c.o)
                0x000000000000359c                lp_ticker_read
 .text.lp_ticker_get_compare_match
                0x00000000000035d8        0xc ym/mbed-hal-ksdk-mcu/source/mbed-hal-ksdk-mcu.a(lp_ticker.c.o)
                0x00000000000035d8                lp_ticker_get_compare_match
 .text.lp_ticker_set_interrupt
                0x00000000000035e4       0x7c ym/mbed-hal-ksdk-mcu/source/mbed-hal-ksdk-mcu.a(lp_ticker.c.o)
                0x00000000000035e4                lp_ticker_set_interrupt
 .text.lp_ticker_sleep_until
                0x0000000000003660       0x38 ym/mbed-hal-ksdk-mcu/source/mbed-hal-ksdk-mcu.a(lp_ticker.c.o)
                0x0000000000003660                lp_ticker_sleep_until
 .text.mbed_ufree
                0x0000000000003698       0x1c ym/ualloc/source/ualloc.a(ualloc.c.o)
                0x0000000000003698                mbed_ufree
 .text.init_mparams
                0x00000000000036b4       0x40 ym/dlmalloc/source/dlmalloc.a(dlmalloc.c.o)
 .text.init_top.constprop.16
                0x00000000000036f4       0x38 ym/dlmalloc/source/dlmalloc.a(dlmalloc.c.o)
 .text.segment_holding.constprop.18
                0x000000000000372c       0x20 ym/dlmalloc/source/dlmalloc.a(dlmalloc.c.o)
 .text.dlmalloc
                0x000000000000374c      0xe2c ym/dlmalloc/source/dlmalloc.a(dlmalloc.c.o)
                0x000000000000374c                dlmalloc
 .text.dlfree   0x0000000000004578      0x438 ym/dlmalloc/source/dlmalloc.a(dlmalloc.c.o)
                0x0000000000004578                dlfree
 .text.SystemInit
                0x00000000000049b0      0x138 ym/cmsis-core-k64f/source/cmsis-core-k64f.a(system_MK64F12.c.o)
                0x00000000000049b0                SystemInit
 .text.vIRQ_SetVectorX
                0x0000000000004ae8       0x1c ym/uvisor-lib/source/uvisor-lib.a(interrupts.cpp.o)
                0x0000000000004ae8                vIRQ_SetVectorX
 .text.vIRQ_EnableIRQ
                0x0000000000004b04       0x28 ym/uvisor-lib/source/uvisor-lib.a(interrupts.cpp.o)
                0x0000000000004b04                vIRQ_EnableIRQ
 .text.vIRQ_ClearPendingIRQ
                0x0000000000004b2c       0x2c ym/uvisor-lib/source/uvisor-lib.a(interrupts.cpp.o)
                0x0000000000004b2c                vIRQ_ClearPendingIRQ
 .text._ZSt15get_new_handlerv
                0x0000000000004b58       0x10 /usr/local/Cellar/arm-none-eabi-gcc/4.9-2015-q2-update/bin/../lib/gcc/arm-none-eabi/4.9.3/../../../../arm-none-eabi/lib/armv7e-m/libstdc++_nano.a(new_handler.o)
                0x0000000000004b58                std::get_new_handler()
 .text          0x0000000000004b68      0x370 /usr/local/Cellar/arm-none-eabi-gcc/4.9-2015-q2-update/bin/../lib/gcc/arm-none-eabi/4.9.3/armv7e-m/libgcc.a(_arm_addsubdf3.o)
                0x0000000000004b68                __aeabi_drsub
                0x0000000000004b70                __subdf3
                0x0000000000004b70                __aeabi_dsub
                0x0000000000004b74                __aeabi_dadd
                0x0000000000004b74                __adddf3
                0x0000000000004dec                __aeabi_ui2d
                0x0000000000004dec                __floatunsidf
                0x0000000000004e0c                __floatsidf
                0x0000000000004e0c                __aeabi_i2d
                0x0000000000004e30                __extendsfdf2
                0x0000000000004e30                __aeabi_f2d
                0x0000000000004e6c                __aeabi_ul2d
                0x0000000000004e6c                __floatundidf
                0x0000000000004e7c                __aeabi_l2d
                0x0000000000004e7c                __floatdidf
 .text          0x0000000000004ed8       0xa0 /usr/local/Cellar/arm-none-eabi-gcc/4.9-2015-q2-update/bin/../lib/gcc/arm-none-eabi/4.9.3/armv7e-m/libgcc.a(_arm_truncdfsf2.o)
                0x0000000000004ed8                __aeabi_d2f
                0x0000000000004ed8                __truncdfsf2
 .text          0x0000000000004f78      0x21c /usr/local/Cellar/arm-none-eabi-gcc/4.9-2015-q2-update/bin/../lib/gcc/arm-none-eabi/4.9.3/armv7e-m/libgcc.a(_arm_addsubsf3.o)
                0x0000000000004f78                __aeabi_frsub
                0x0000000000004f80                __aeabi_fsub
                0x0000000000004f80                __subsf3
                0x0000000000004f84                __aeabi_fadd
                0x0000000000004f84                __addsf3
                0x00000000000050e4                __aeabi_ui2f
                0x00000000000050e4                __floatunsisf
                0x00000000000050ec                __floatsisf
                0x00000000000050ec                __aeabi_i2f
                0x0000000000005108                __aeabi_ul2f
                0x0000000000005108                __floatundisf
                0x0000000000005118                __aeabi_l2f
                0x0000000000005118                __floatdisf
 .text          0x0000000000005194      0x2a0 /usr/local/Cellar/arm-none-eabi-gcc/4.9-2015-q2-update/bin/../lib/gcc/arm-none-eabi/4.9.3/armv7e-m/libgcc.a(_arm_muldivsf3.o)
                0x0000000000005194                __mulsf3
                0x0000000000005194                __aeabi_fmul
                0x00000000000052fc                __divsf3
                0x00000000000052fc                __aeabi_fdiv
 .text          0x0000000000005434       0x4c /usr/local/Cellar/arm-none-eabi-gcc/4.9-2015-q2-update/bin/../lib/gcc/arm-none-eabi/4.9.3/armv7e-m/libgcc.a(_arm_fixsfsi.o)
                0x0000000000005434                __fixsfsi
                0x0000000000005434                __aeabi_f2iz
 .text.round    0x0000000000005480       0xa0 /usr/local/Cellar/arm-none-eabi-gcc/4.9-2015-q2-update/bin/../lib/gcc/arm-none-eabi/4.9.3/../../../../arm-none-eabi/lib/armv7e-m/libm.a(lib_a-s_round.o)
                0x0000000000005480                round
 .text.__cxa_atexit
                0x0000000000005520       0x1c /usr/local/Cellar/arm-none-eabi-gcc/4.9-2015-q2-update/bin/../lib/gcc/arm-none-eabi/4.9.3/../../../../arm-none-eabi/lib/armv7e-m/libc_nano.a(lib_a-cxa_atexit.o)
                0x0000000000005520                __cxa_atexit
 .text.__errno  0x000000000000553c        0xc /usr/local/Cellar/arm-none-eabi-gcc/4.9-2015-q2-update/bin/../lib/gcc/arm-none-eabi/4.9.3/../../../../arm-none-eabi/lib/armv7e-m/libc_nano.a(lib_a-errno.o)
                0x000000000000553c                __errno
 .text._fflush_r
                0x0000000000005548       0x54 /usr/local/Cellar/arm-none-eabi-gcc/4.9-2015-q2-update/bin/../lib/gcc/arm-none-eabi/4.9.3/../../../../arm-none-eabi/lib/armv7e-m/libc_nano.a(lib_a-fflush.o)
                0x0000000000005548                _fflush_r
 .text.fflush   0x000000000000559c       0x24 /usr/local/Cellar/arm-none-eabi-gcc/4.9-2015-q2-update/bin/../lib/gcc/arm-none-eabi/4.9.3/../../../../arm-none-eabi/lib/armv7e-m/libc_nano.a(lib_a-fflush.o)
                0x000000000000559c                fflush
 .text._cleanup_r
                0x00000000000055c0        0xc /usr/local/Cellar/arm-none-eabi-gcc/4.9-2015-q2-update/bin/../lib/gcc/arm-none-eabi/4.9.3/../../../../arm-none-eabi/lib/armv7e-m/libc_nano.a(lib_a-findfp.o)
                0x00000000000055c0                _cleanup_r
 .text.std.isra.0
                0x00000000000055cc       0x48 /usr/local/Cellar/arm-none-eabi-gcc/4.9-2015-q2-update/bin/../lib/gcc/arm-none-eabi/4.9.3/../../../../arm-none-eabi/lib/armv7e-m/libc_nano.a(lib_a-findfp.o)
 .text.__sinit  0x0000000000005614       0x60 /usr/local/Cellar/arm-none-eabi-gcc/4.9-2015-q2-update/bin/../lib/gcc/arm-none-eabi/4.9.3/../../../../arm-none-eabi/lib/armv7e-m/libc_nano.a(lib_a-findfp.o)
                0x0000000000005614                __sinit
 .text.__sfp    0x0000000000005674       0x74 /usr/local/Cellar/arm-none-eabi-gcc/4.9-2015-q2-update/bin/../lib/gcc/arm-none-eabi/4.9.3/../../../../arm-none-eabi/lib/armv7e-m/libc_nano.a(lib_a-findfp.o)
                0x0000000000005674                __sfp
 .text.fprintf  0x00000000000056e8       0x24 /usr/local/Cellar/arm-none-eabi-gcc/4.9-2015-q2-update/bin/../lib/gcc/arm-none-eabi/4.9.3/../../../../arm-none-eabi/lib/armv7e-m/libc_nano.a(lib_a-fprintf.o)
                0x00000000000056e8                fprintf
                0x00000000000056e8                fiprintf
 .text.__libc_init_array
                0x000000000000570c       0x4c /usr/local/Cellar/arm-none-eabi-gcc/4.9-2015-q2-update/bin/../lib/gcc/arm-none-eabi/4.9.3/../../../../arm-none-eabi/lib/armv7e-m/libc_nano.a(lib_a-init.o)
                0x000000000000570c                __libc_init_array
 .text.malloc   0x0000000000005758       0x10 /usr/local/Cellar/arm-none-eabi-gcc/4.9-2015-q2-update/bin/../lib/gcc/arm-none-eabi/4.9.3/../../../../arm-none-eabi/lib/armv7e-m/libc_nano.a(lib_a-malloc.o)
                0x0000000000005758                malloc
 .text.free     0x0000000000005768       0x10 /usr/local/Cellar/arm-none-eabi-gcc/4.9-2015-q2-update/bin/../lib/gcc/arm-none-eabi/4.9.3/../../../../arm-none-eabi/lib/armv7e-m/libc_nano.a(lib_a-malloc.o)
                0x0000000000005768                free
 .text._vfprintf_r
                0x0000000000005778      0x210 /usr/local/Cellar/arm-none-eabi-gcc/4.9-2015-q2-update/bin/../lib/gcc/arm-none-eabi/4.9.3/../../../../arm-none-eabi/lib/armv7e-m/libc_nano.a(lib_a-nano-vfprintf.o)
                0x0000000000005778                _vfiprintf_r
                0x0000000000005778                _vfprintf_r
 .text.vfprintf
                0x0000000000005988       0x1c /usr/local/Cellar/arm-none-eabi-gcc/4.9-2015-q2-update/bin/../lib/gcc/arm-none-eabi/4.9.3/../../../../arm-none-eabi/lib/armv7e-m/libc_nano.a(lib_a-nano-vfprintf.o)
                0x0000000000005988                vfiprintf
                0x0000000000005988                vfprintf
 .text._printf_i
                0x00000000000059a4      0x240 /usr/local/Cellar/arm-none-eabi-gcc/4.9-2015-q2-update/bin/../lib/gcc/arm-none-eabi/4.9.3/../../../../arm-none-eabi/lib/armv7e-m/libc_nano.a(lib_a-nano-vfprintf_i.o)
                0x00000000000059a4                _printf_i
 .text.printf   0x0000000000005be4       0x30 /usr/local/Cellar/arm-none-eabi-gcc/4.9-2015-q2-update/bin/../lib/gcc/arm-none-eabi/4.9.3/../../../../arm-none-eabi/lib/armv7e-m/libc_nano.a(lib_a-printf.o)
                0x0000000000005be4                printf
                0x0000000000005be4                iprintf
 .text.puts     0x0000000000005c14       0x10 /usr/local/Cellar/arm-none-eabi-gcc/4.9-2015-q2-update/bin/../lib/gcc/arm-none-eabi/4.9.3/../../../../arm-none-eabi/lib/armv7e-m/libc_nano.a(lib_a-puts.o)
                0x0000000000005c14                puts
 .text.raise    0x0000000000005c24       0x10 /usr/local/Cellar/arm-none-eabi-gcc/4.9-2015-q2-update/bin/../lib/gcc/arm-none-eabi/4.9.3/../../../../arm-none-eabi/lib/armv7e-m/libc_nano.a(lib_a-signal.o)
                0x0000000000005c24                raise
 .text._kill_r  0x0000000000005c34       0x24 /usr/local/Cellar/arm-none-eabi-gcc/4.9-2015-q2-update/bin/../lib/gcc/arm-none-eabi/4.9.3/../../../../arm-none-eabi/lib/armv7e-m/libc_nano.a(lib_a-signalr.o)
                0x0000000000005c34                _kill_r
 .text.__swbuf_r
                0x0000000000005c58       0xa8 /usr/local/Cellar/arm-none-eabi-gcc/4.9-2015-q2-update/bin/../lib/gcc/arm-none-eabi/4.9.3/../../../../arm-none-eabi/lib/armv7e-m/libc_nano.a(lib_a-wbuf.o)
                0x0000000000005c58                __swbuf_r
 .text._write_r
                0x0000000000005d00       0x24 /usr/local/Cellar/arm-none-eabi-gcc/4.9-2015-q2-update/bin/../lib/gcc/arm-none-eabi/4.9.3/../../../../arm-none-eabi/lib/armv7e-m/libc_nano.a(lib_a-writer.o)
                0x0000000000005d00                _write_r
 .text.__swsetup_r
                0x0000000000005d24       0xd8 /usr/local/Cellar/arm-none-eabi-gcc/4.9-2015-q2-update/bin/../lib/gcc/arm-none-eabi/4.9.3/../../../../arm-none-eabi/lib/armv7e-m/libc_nano.a(lib_a-wsetup.o)
                0x0000000000005d24                __swsetup_r
 .text._close_r
                0x0000000000005dfc       0x20 /usr/local/Cellar/arm-none-eabi-gcc/4.9-2015-q2-update/bin/../lib/gcc/arm-none-eabi/4.9.3/../../../../arm-none-eabi/lib/armv7e-m/libc_nano.a(lib_a-closer.o)
                0x0000000000005dfc                _close_r
 .text._lseek_r
                0x0000000000005e1c       0x24 /usr/local/Cellar/arm-none-eabi-gcc/4.9-2015-q2-update/bin/../lib/gcc/arm-none-eabi/4.9.3/../../../../arm-none-eabi/lib/armv7e-m/libc_nano.a(lib_a-lseekr.o)
                0x0000000000005e1c                _lseek_r
 .text.__smakebuf_r
                0x0000000000005e40       0x9c /usr/local/Cellar/arm-none-eabi-gcc/4.9-2015-q2-update/bin/../lib/gcc/arm-none-eabi/4.9.3/../../../../arm-none-eabi/lib/armv7e-m/libc_nano.a(lib_a-makebuf.o)
                0x0000000000005e40                __smakebuf_r
 .text._read_r  0x0000000000005edc       0x24 /usr/local/Cellar/arm-none-eabi-gcc/4.9-2015-q2-update/bin/../lib/gcc/arm-none-eabi/4.9.3/../../../../arm-none-eabi/lib/armv7e-m/libc_nano.a(lib_a-readr.o)
                0x0000000000005edc                _read_r
 .text._fstat_r
                0x0000000000005f00       0x24 /usr/local/Cellar/arm-none-eabi-gcc/4.9-2015-q2-update/bin/../lib/gcc/arm-none-eabi/4.9.3/../../../../arm-none-eabi/lib/armv7e-m/libc_nano.a(lib_a-fstatr.o)
                0x0000000000005f00                _fstat_r
 .text._isatty_r
                0x0000000000005f24       0x20 /usr/local/Cellar/arm-none-eabi-gcc/4.9-2015-q2-update/bin/../lib/gcc/arm-none-eabi/4.9.3/../../../../arm-none-eabi/lib/armv7e-m/libc_nano.a(lib_a-isattyr.o)
                0x0000000000005f24                _isatty_r
 .text          0x0000000000005f44      0x110 /usr/local/Cellar/arm-none-eabi-gcc/4.9-2015-q2-update/bin/../lib/gcc/arm-none-eabi/4.9.3/armv7e-m/libgcc.a(_arm_cmpdf2.o)
                0x0000000000005f44                __gtdf2
                0x0000000000005f44                __gedf2
                0x0000000000005f4c                __ltdf2
                0x0000000000005f4c                __ledf2
                0x0000000000005f54                __eqdf2
                0x0000000000005f54                __nedf2
                0x0000000000005f54                __cmpdf2
                0x0000000000005fd0                __aeabi_cdrcmple
                0x0000000000005fe0                __aeabi_cdcmple
                0x0000000000005fe0                __aeabi_cdcmpeq
                0x0000000000005ff0                __aeabi_dcmpeq
                0x0000000000006004                __aeabi_dcmplt
                0x0000000000006018                __aeabi_dcmple
                0x000000000000602c                __aeabi_dcmpge
                0x0000000000006040                __aeabi_dcmpgt
 .text.mbed_sbrk
                0x0000000000006054       0x64 ym/core-util/source/core-util.a(sbrk.cpp.o)
                0x0000000000006054                mbed_sbrk
 .text.mbed_krbs_ex
                0x00000000000060b8       0x68 ym/core-util/source/core-util.a(sbrk.cpp.o)
                0x00000000000060b8                mbed_krbs_ex
 .text.NVIC_SetVector
                0x0000000000006120       0x3c ym/cmsis-core/source/cmsis-core.a(cmsis_nvic.c.o)
                0x0000000000006120                NVIC_SetVector
 .text._ZN4mbed4util19FunctionPointerBaseIvE17_null_constructorEPvSt9__va_list
                0x000000000000615c        0x2 ym/mbed-drivers/source/mbed-drivers.a(retarget.cpp.o)
                0x000000000000615c                mbed::util::FunctionPointerBase<void>::_null_constructor(void*, std::__va_list)
 .text._ZN4mbed4util19FunctionPointerBaseIvE15_null_copy_argsEPvS3_
                0x000000000000615e        0x2 ym/mbed-drivers/source/mbed-drivers.a(retarget.cpp.o)
                0x000000000000615e                mbed::util::FunctionPointerBase<void>::_null_copy_args(void*, void*)
 .text._ZN4mbed4util19FunctionPointerBaseIvE16_null_destructorEPv
                0x0000000000006160        0x2 ym/mbed-drivers/source/mbed-drivers.a(retarget.cpp.o)
                0x0000000000006160                mbed::util::FunctionPointerBase<void>::_null_destructor(void*)
 .text._ZN4mbed4util16FunctionPointer2IviPPcE11constructorEPvSt9__va_list
                0x0000000000006162       0x10 ym/mbed-drivers/source/mbed-drivers.a(retarget.cpp.o)
                0x0000000000006162                mbed::util::FunctionPointer2<void, int, char**>::constructor(void*, std::__va_list)
 .text._ZN4mbed4util16FunctionPointer2IviPPcE16copy_constructorEPvS5_
                0x0000000000006172        0xc ym/mbed-drivers/source/mbed-drivers.a(retarget.cpp.o)
                0x0000000000006172                mbed::util::FunctionPointer2<void, int, char**>::copy_constructor(void*, void*)
 .text._ZN4mbed4util16FunctionPointer2IviPPcE10destructorEPv
                0x000000000000617e        0x2 ym/mbed-drivers/source/mbed-drivers.a(retarget.cpp.o)
                0x000000000000617e                mbed::util::FunctionPointer2<void, int, char**>::destructor(void*)
 .text._ZN4mbed4util16FunctionPointer2IviPPcE12staticcallerEPvPjS5_
                0x0000000000006180        0x8 ym/mbed-drivers/source/mbed-drivers.a(retarget.cpp.o)
                0x0000000000006180                mbed::util::FunctionPointer2<void, int, char**>::staticcaller(void*, unsigned int*, void*)
 .text._ZN4mbed4util16FunctionPointer2IviPPcED2Ev
                0x0000000000006188        0x2 ym/mbed-drivers/source/mbed-drivers.a(retarget.cpp.o)
                0x0000000000006188                mbed::util::FunctionPointer2<void, int, char**>::~FunctionPointer2()
                0x0000000000006188                mbed::util::FunctionPointer2<void, int, char**>::~FunctionPointer2()
 .text._ZN4mbed4util16FunctionPointer2IviPPcED0Ev
                0x000000000000618a        0xc ym/mbed-drivers/source/mbed-drivers.a(retarget.cpp.o)
                0x000000000000618a                mbed::util::FunctionPointer2<void, int, char**>::~FunctionPointer2()
 .text._ZN4mbed4util19FunctionPointerBindIvED0Ev
                0x0000000000006196       0x12 ym/mbed-drivers/source/mbed-drivers.a(retarget.cpp.o)
                0x0000000000006196                mbed::util::FunctionPointerBind<void>::~FunctionPointerBind()
 .text._ZN4mbed4util19FunctionPointerBaseIvE5clearEv
                0x00000000000061a8        0xe ym/mbed-drivers/source/mbed-drivers.a(retarget.cpp.o)
                0x00000000000061a8                mbed::util::FunctionPointerBase<void>::clear()
 .text._fstat   0x00000000000061b6       0x1e ym/mbed-drivers/source/mbed-drivers.a(retarget.cpp.o)
                0x00000000000061b6                _fstat
 .text.__wrap_main
                0x00000000000061d4        0xe ym/mbed-drivers/source/mbed-drivers.a(retarget.cpp.o)
                0x00000000000061d4                __wrap_main
 .text._exit    0x00000000000061e2        0x4 ym/mbed-drivers/source/mbed-drivers.a(retarget.cpp.o)
                0x00000000000061e2                _exit
 .text._kill    0x00000000000061e6       0x10 ym/mbed-drivers/source/mbed-drivers.a(retarget.cpp.o)
                0x00000000000061e6                _kill
 .text._getpid  0x00000000000061f6        0x4 ym/mbed-drivers/source/mbed-drivers.a(retarget.cpp.o)
                0x00000000000061f6                _getpid
 .text.mbed_die
                0x00000000000061fa       0x2c ym/mbed-drivers/source/mbed-drivers.a(board.c.o)
                0x00000000000061fa                mbed_die
 .text.wait_us  0x0000000000006226       0x16 ym/mbed-drivers/source/mbed-drivers.a(wait_api.c.o)
                0x0000000000006226                wait_us
 .text.wait_ms  0x000000000000623c        0xa ym/mbed-drivers/source/mbed-drivers.a(wait_api.c.o)
                0x000000000000623c                wait_ms
 .text._gpio_init_in
                0x0000000000006246       0x26 ym/mbed-drivers/source/mbed-drivers.a(gpio.c.o)
 .text.gpio_init_in
                0x000000000000626c        0x6 ym/mbed-drivers/source/mbed-drivers.a(gpio.c.o)
                0x000000000000626c                gpio_init_in
 .text.gpio_init_out_ex
                0x0000000000006272       0x2e ym/mbed-drivers/source/mbed-drivers.a(gpio.c.o)
                0x0000000000006272                gpio_init_out_ex
 .text.gpio_init_out
                0x00000000000062a0        0x6 ym/mbed-drivers/source/mbed-drivers.a(gpio.c.o)
                0x00000000000062a0                gpio_init_out
 .text._ZN6DS182013onewire_resetEPN4mbed12DigitalInOutE
                0x00000000000062a6       0x40 source/ds1820-mbedos.a(DS1820.cpp.o)
                0x00000000000062a6                DS1820::onewire_reset(mbed::DigitalInOut*)
 .text._ZN6DS182015onewire_bit_outEPN4mbed12DigitalInOutEb
                0x00000000000062e6       0x40 source/ds1820-mbedos.a(DS1820.cpp.o)
                0x00000000000062e6                DS1820::onewire_bit_out(mbed::DigitalInOut*, bool)
 .text._ZN6DS182016onewire_byte_outEc
                0x0000000000006326       0x1c source/ds1820-mbedos.a(DS1820.cpp.o)
                0x0000000000006326                DS1820::onewire_byte_out(char)
 .text._ZN6DS182014onewire_bit_inEPN4mbed12DigitalInOutE
                0x0000000000006342       0x3c source/ds1820-mbedos.a(DS1820.cpp.o)
                0x0000000000006342                DS1820::onewire_bit_in(mbed::DigitalInOut*)
 .text._ZN6DS182015onewire_byte_inEv
                0x000000000000637e       0x20 source/ds1820-mbedos.a(DS1820.cpp.o)
                0x000000000000637e                DS1820::onewire_byte_in()
 .text._ZN6DS18209match_ROMEv
                0x000000000000639e       0x2a source/ds1820-mbedos.a(DS1820.cpp.o)
                0x000000000000639e                DS1820::match_ROM()
 .text._ZN6DS18208skip_ROMEv
                0x00000000000063c8       0x16 source/ds1820-mbedos.a(DS1820.cpp.o)
                0x00000000000063c8                DS1820::skip_ROM()
 .text._ZN6DS18208CRC_byteEcc
                0x00000000000063de       0x38 source/ds1820-mbedos.a(DS1820.cpp.o)
                0x00000000000063de                DS1820::CRC_byte(char, char)
 .text._ZN6DS182018ROM_checksum_errorEPc
                0x0000000000006416       0x20 source/ds1820-mbedos.a(DS1820.cpp.o)
                0x0000000000006416                DS1820::ROM_checksum_error(char*)
 .text._ZN6DS182015unassignedProbeE7PinName
                0x0000000000006436       0x20 source/ds1820-mbedos.a(DS1820.cpp.o)
                0x0000000000006436                DS1820::unassignedProbe(PinName)
 .text._ZN6DS182015unassignedProbeEPN4mbed12DigitalInOutEPc
                0x0000000000006456        0x8 source/ds1820-mbedos.a(DS1820.cpp.o)
                0x0000000000006456                DS1820::unassignedProbe(mbed::DigitalInOut*, char*)
 .text._ZN6DS182018RAM_checksum_errorEv
                0x000000000000645e       0x24 source/ds1820-mbedos.a(DS1820.cpp.o)
                0x000000000000645e                DS1820::RAM_checksum_error()
 .text._ZN6DS182018convertTemperatureEbNS_7devicesE
                0x0000000000006482       0xa8 source/ds1820-mbedos.a(DS1820.cpp.o)
                0x0000000000006482                DS1820::convertTemperature(bool, DS1820::devices)
 .text._ZN6DS18208read_RAMEv
                0x000000000000652a       0x28 source/ds1820-mbedos.a(DS1820.cpp.o)
                0x000000000000652a                DS1820::read_RAM()
 .text._ZN6DS182017read_power_supplyENS_7devicesE
                0x0000000000006552       0x24 source/ds1820-mbedos.a(DS1820.cpp.o)
                0x0000000000006552                DS1820::read_power_supply(DS1820::devices)
 .text._ZN10LinkedListI4nodeEC2Ev
                0x0000000000006576        0x6 source/ds1820-mbedos.a(LinkedList.cpp.o)
                0x0000000000006576                LinkedList<node>::LinkedList()
                0x0000000000006576                LinkedList<node>::LinkedList()
 .text._ZN10LinkedListI4nodeE6appendEPv
                0x000000000000657c       0x26 source/ds1820-mbedos.a(LinkedList.cpp.o)
                0x000000000000657c                LinkedList<node>::append(void*)
 .text._ZN10LinkedListI4nodeE6lengthEv
                0x00000000000065a2        0xe source/ds1820-mbedos.a(LinkedList.cpp.o)
                0x00000000000065a2                LinkedList<node>::length()
 .text._ZN10LinkedListI4nodeE6removeEm
                0x00000000000065b0       0x3a source/ds1820-mbedos.a(LinkedList.cpp.o)
                0x00000000000065b0                LinkedList<node>::remove(unsigned long)
 .text._ZN10LinkedListI4nodeED2Ev
                0x00000000000065ea       0x14 source/ds1820-mbedos.a(LinkedList.cpp.o)
                0x00000000000065ea                LinkedList<node>::~LinkedList()
                0x00000000000065ea                LinkedList<node>::~LinkedList()
 .text._ZN10LinkedListI4nodeE3popEm
                0x00000000000065fe       0x28 source/ds1820-mbedos.a(LinkedList.cpp.o)
                0x00000000000065fe                LinkedList<node>::pop(unsigned long)
 .text._ZN5minarL21smallestTimeIncrementEmmm
                0x0000000000006626       0x26 ym/minar/source/minar.a(minar.cpp.o)
 .text._ZN4mbed4util19CriticalSectionLockC2Ev
                0x000000000000664c        0xa ym/minar/source/minar.a(minar.cpp.o)
                0x000000000000664c                mbed::util::CriticalSectionLock::CriticalSectionLock()
                0x000000000000664c                mbed::util::CriticalSectionLock::CriticalSectionLock()
 .text._ZNK5minar13SchedulerData19CallbackNodeCompareclERKPNS_12CallbackNodeES5_
                0x0000000000006656       0x1c ym/minar/source/minar.a(minar.cpp.o)
                0x0000000000006656                minar::SchedulerData::CallbackNodeCompare::operator()(minar::CallbackNode* const&, minar::CallbackNode* const&) const
 .text._ZN5minar9Scheduler13CallbackAdderC2ERS0_N4mbed4util19FunctionPointerBindIvEE
                0x0000000000006672       0x22 ym/minar/source/minar.a(minar.cpp.o)
                0x0000000000006672                minar::Scheduler::CallbackAdder::CallbackAdder(minar::Scheduler&, mbed::util::FunctionPointerBind<void>)
                0x0000000000006672                minar::Scheduler::CallbackAdder::CallbackAdder(minar::Scheduler&, mbed::util::FunctionPointerBind<void>)
 .text._ZNK4mbed4util5ArrayIPN5minar12CallbackNodeEE19get_element_addressEj
                0x0000000000006694       0x18 ym/minar/source/minar.a(minar.cpp.o)
                0x0000000000006694                mbed::util::Array<minar::CallbackNode*>::get_element_address(unsigned int) const
 .text._ZN4mbed4util10BinaryHeapIPN5minar12CallbackNodeENS2_13SchedulerData19CallbackNodeCompareEE5_swapEjj
                0x00000000000066ac       0x34 ym/minar/source/minar.a(minar.cpp.o)
                0x00000000000066ac                mbed::util::BinaryHeap<minar::CallbackNode*, minar::SchedulerData::CallbackNodeCompare>::_swap(unsigned int, unsigned int)
 .text._ZN4mbed4util5ArrayIPN5minar12CallbackNodeEE8pop_backEv
                0x00000000000066e0       0x28 ym/minar/source/minar.a(minar.cpp.o)
                0x00000000000066e0                mbed::util::Array<minar::CallbackNode*>::pop_back()
 .text._ZN4mbed4util10BinaryHeapIPN5minar12CallbackNodeENS2_13SchedulerData19CallbackNodeCompareEE15_propagate_downEj
                0x0000000000006708       0xb0 ym/minar/source/minar.a(minar.cpp.o)
                0x0000000000006708                mbed::util::BinaryHeap<minar::CallbackNode*, minar::SchedulerData::CallbackNodeCompare>::_propagate_down(unsigned int)
 .text._ZNK4mbed4util5ArrayIPN5minar12CallbackNodeEE16create_new_arrayEjjPNS5_10array_linkE
                0x00000000000067b8       0x26 ym/minar/source/minar.a(minar.cpp.o)
                0x00000000000067b8                mbed::util::Array<minar::CallbackNode*>::create_new_array(unsigned int, unsigned int, mbed::util::Array<minar::CallbackNode*>::array_link*) const
 .text._ZN5minar9SchedulerC2Ev
                0x00000000000067de       0x16 ym/minar/source/minar.a(minar.cpp.o)
                0x00000000000067de                minar::Scheduler::Scheduler()
                0x00000000000067de                minar::Scheduler::Scheduler()
 .text._ZN4mbed4util10BinaryHeapIPN5minar12CallbackNodeENS2_13SchedulerData19CallbackNodeCompareEE6insertERKS4_
                0x00000000000067f4       0xc6 ym/minar/source/minar.a(minar.cpp.o)
                0x00000000000067f4                mbed::util::BinaryHeap<minar::CallbackNode*, minar::SchedulerData::CallbackNodeCompare>::insert(minar::CallbackNode* const&)
 .text._ZN5minar9Scheduler13CallbackAdder9getHandleEv
                0x00000000000068ba       0x50 ym/minar/source/minar.a(minar.cpp.o)
                0x00000000000068ba                minar::Scheduler::CallbackAdder::getHandle()
 .text._ZN5minar9Scheduler13CallbackAdderD2Ev
                0x000000000000690a       0x12 ym/minar/source/minar.a(minar.cpp.o)
                0x000000000000690a                minar::Scheduler::CallbackAdder::~CallbackAdder()
                0x000000000000690a                minar::Scheduler::CallbackAdder::~CallbackAdder()
 .text._ZN4mbed4util23ExtendablePoolAllocatorC2Ev
                0x000000000000691c        0x6 ym/core-util/source/core-util.a(ExtendablePoolAllocator.cpp.o)
                0x000000000000691c                mbed::util::ExtendablePoolAllocator::ExtendablePoolAllocator()
                0x000000000000691c                mbed::util::ExtendablePoolAllocator::ExtendablePoolAllocator()
 .text._ZN4mbed4util23ExtendablePoolAllocator4freeEPv
                0x0000000000006922       0x26 ym/core-util/source/core-util.a(ExtendablePoolAllocator.cpp.o)
                0x0000000000006922                mbed::util::ExtendablePoolAllocator::free(void*)
 .text._ZNK4mbed4util23ExtendablePoolAllocator15create_new_poolEjPNS1_9pool_linkE
                0x0000000000006948       0x44 ym/core-util/source/core-util.a(ExtendablePoolAllocator.cpp.o)
                0x0000000000006948                mbed::util::ExtendablePoolAllocator::create_new_pool(unsigned int, mbed::util::ExtendablePoolAllocator::pool_link*) const
 .text._ZN4mbed4util23ExtendablePoolAllocator4initEjjj12UAllocTraitsj
                0x000000000000698c       0x38 ym/core-util/source/core-util.a(ExtendablePoolAllocator.cpp.o)
                0x000000000000698c                mbed::util::ExtendablePoolAllocator::init(unsigned int, unsigned int, unsigned int, UAllocTraits, unsigned int)
 .text._ZN4mbed4util23ExtendablePoolAllocator5allocEv
                0x00000000000069c4       0x58 ym/core-util/source/core-util.a(ExtendablePoolAllocator.cpp.o)
                0x00000000000069c4                mbed::util::ExtendablePoolAllocator::alloc()
 .text._ZN4mbed4util13PoolAllocator5allocEv
                0x0000000000006a1c       0x2c ym/core-util/source/core-util.a(PoolAllocator.cpp.o)
                0x0000000000006a1c                mbed::util::PoolAllocator::alloc()
 .text._ZNK4mbed4util13PoolAllocator4ownsEPv
                0x0000000000006a48       0x16 ym/core-util/source/core-util.a(PoolAllocator.cpp.o)
                0x0000000000006a48                mbed::util::PoolAllocator::owns(void*) const
 .text._ZN4mbed4util13PoolAllocator4freeEPv
                0x0000000000006a5e       0x2e ym/core-util/source/core-util.a(PoolAllocator.cpp.o)
                0x0000000000006a5e                mbed::util::PoolAllocator::free(void*)
 .text._ZN4mbed4util13PoolAllocator13get_pool_sizeEjjj
                0x0000000000006a8c        0xc ym/core-util/source/core-util.a(PoolAllocator.cpp.o)
                0x0000000000006a8c                mbed::util::PoolAllocator::get_pool_size(unsigned int, unsigned int, unsigned int)
 .text._ZN4mbed4util13PoolAllocator8align_upEmm
                0x0000000000006a98        0xa ym/core-util/source/core-util.a(PoolAllocator.cpp.o)
                0x0000000000006a98                mbed::util::PoolAllocator::align_up(unsigned long, unsigned long)
 .text._ZN4mbed4util13PoolAllocator5_initEv
                0x0000000000006aa2       0x1e ym/core-util/source/core-util.a(PoolAllocator.cpp.o)
                0x0000000000006aa2                mbed::util::PoolAllocator::_init()
 .text._ZN4mbed4util13PoolAllocatorC2EPvjjj
                0x0000000000006ac0       0x20 ym/core-util/source/core-util.a(PoolAllocator.cpp.o)
                0x0000000000006ac0                mbed::util::PoolAllocator::PoolAllocator(void*, unsigned int, unsigned int, unsigned int)
                0x0000000000006ac0                mbed::util::PoolAllocator::PoolAllocator(void*, unsigned int, unsigned int, unsigned int)
 .text.UART_HAL_EnableTransmitter
                0x0000000000006ae0       0x18 ym/mbed-hal-ksdk-mcu/source/mbed-hal-ksdk-mcu.a(serial_api.c.o)
 .text.UART_HAL_EnableReceiver
                0x0000000000006af8       0x18 ym/mbed-hal-ksdk-mcu/source/mbed-hal-ksdk-mcu.a(serial_api.c.o)
 .text.UART_HAL_SetBitCountPerChar
                0x0000000000006b10       0x16 ym/mbed-hal-ksdk-mcu/source/mbed-hal-ksdk-mcu.a(serial_api.c.o)
 .text.UART_HAL_SetParityMode
                0x0000000000006b26       0x46 ym/mbed-hal-ksdk-mcu/source/mbed-hal-ksdk-mcu.a(serial_api.c.o)
 .text.UART_HAL_SetStopBitCount
                0x0000000000006b6c       0x16 ym/mbed-hal-ksdk-mcu/source/mbed-hal-ksdk-mcu.a(serial_api.c.o)
 .text.UART_HAL_GetTxDataRegEmptyIntCmd
                0x0000000000006b82       0x1e ym/mbed-hal-ksdk-mcu/source/mbed-hal-ksdk-mcu.a(serial_api.c.o)
 .text.UART_HAL_GetRxDataRegFullIntCmd
                0x0000000000006ba0       0x1e ym/mbed-hal-ksdk-mcu/source/mbed-hal-ksdk-mcu.a(serial_api.c.o)
 .text.UART_HAL_IsTxDataRegEmpty
                0x0000000000006bbe       0x1e ym/mbed-hal-ksdk-mcu/source/mbed-hal-ksdk-mcu.a(serial_api.c.o)
 .text.UART_HAL_IsRxDataRegFull
                0x0000000000006bdc       0x1e ym/mbed-hal-ksdk-mcu/source/mbed-hal-ksdk-mcu.a(serial_api.c.o)
 .text.serial_readable
                0x0000000000006bfa       0x1e ym/mbed-hal-ksdk-mcu/source/mbed-hal-ksdk-mcu.a(serial_api.c.o)
                0x0000000000006bfa                serial_readable
 .text.serial_getc
                0x0000000000006c18       0x20 ym/mbed-hal-ksdk-mcu/source/mbed-hal-ksdk-mcu.a(serial_api.c.o)
                0x0000000000006c18                serial_getc
 .text.serial_writable
                0x0000000000006c38       0x1e ym/mbed-hal-ksdk-mcu/source/mbed-hal-ksdk-mcu.a(serial_api.c.o)
                0x0000000000006c38                serial_writable
 .text.serial_putc
                0x0000000000006c56       0x1c ym/mbed-hal-ksdk-mcu/source/mbed-hal-ksdk-mcu.a(serial_api.c.o)
                0x0000000000006c56                serial_putc
 .text.gpio_mode
                0x0000000000006c72        0x6 ym/mbed-hal-ksdk-mcu/source/mbed-hal-ksdk-mcu.a(gpio_api.c.o)
                0x0000000000006c72                gpio_mode
 .text.UART_HAL_Init
                0x0000000000006c78      0x110 ym/mbed-hal-ksdk-mcu/source/mbed-hal-ksdk-mcu.a(fsl_uart_hal.c.o)
                0x0000000000006c78                UART_HAL_Init
 .text.UART_HAL_SetBaudRate
                0x0000000000006d88       0x86 ym/mbed-hal-ksdk-mcu/source/mbed-hal-ksdk-mcu.a(fsl_uart_hal.c.o)
                0x0000000000006d88                UART_HAL_SetBaudRate
 .text.UART_HAL_Putchar
                0x0000000000006e0e       0x20 ym/mbed-hal-ksdk-mcu/source/mbed-hal-ksdk-mcu.a(fsl_uart_hal.c.o)
                0x0000000000006e0e                UART_HAL_Putchar
 .text.UART_HAL_Getchar
                0x0000000000006e2e       0x22 ym/mbed-hal-ksdk-mcu/source/mbed-hal-ksdk-mcu.a(fsl_uart_hal.c.o)
                0x0000000000006e2e                UART_HAL_Getchar
 .text.UART_HAL_GetStatusFlag
                0x0000000000006e50       0x38 ym/mbed-hal-ksdk-mcu/source/mbed-hal-ksdk-mcu.a(fsl_uart_hal.c.o)
                0x0000000000006e50                UART_HAL_GetStatusFlag
 .text.UART_HAL_ClearStatusFlag
                0x0000000000006e88       0xd2 ym/mbed-hal-ksdk-mcu/source/mbed-hal-ksdk-mcu.a(fsl_uart_hal.c.o)
                0x0000000000006e88                UART_HAL_ClearStatusFlag
 .text.UART_HAL_ClearAllNonAutoclearStatusFlags
                0x0000000000006f5a       0x56 ym/mbed-hal-ksdk-mcu/source/mbed-hal-ksdk-mcu.a(fsl_uart_hal.c.o)
                0x0000000000006f5a                UART_HAL_ClearAllNonAutoclearStatusFlags
 .text.UART_HAL_SetTxFifoCmd
                0x0000000000006fb0       0x4a ym/mbed-hal-ksdk-mcu/source/mbed-hal-ksdk-mcu.a(fsl_uart_hal.c.o)
                0x0000000000006fb0                UART_HAL_SetTxFifoCmd
 .text.UART_HAL_SetRxFifoCmd
                0x0000000000006ffa       0x4a ym/mbed-hal-ksdk-mcu/source/mbed-hal-ksdk-mcu.a(fsl_uart_hal.c.o)
                0x0000000000006ffa                UART_HAL_SetRxFifoCmd
 .text.UART_HAL_FlushTxFifo
                0x0000000000007044       0x36 ym/mbed-hal-ksdk-mcu/source/mbed-hal-ksdk-mcu.a(fsl_uart_hal.c.o)
                0x0000000000007044                UART_HAL_FlushTxFifo
 .text.UART_HAL_FlushRxFifo
                0x000000000000707a       0x36 ym/mbed-hal-ksdk-mcu/source/mbed-hal-ksdk-mcu.a(fsl_uart_hal.c.o)
                0x000000000000707a                UART_HAL_FlushRxFifo
 .text.GPIO_HAL_SetPinDir
                0x00000000000070b0       0x42 ym/mbed-hal-ksdk-mcu/source/mbed-hal-ksdk-mcu.a(fsl_gpio_hal.c.o)
                0x00000000000070b0                GPIO_HAL_SetPinDir
 .text.GPIO_HAL_WritePinOutput
                0x00000000000070f2       0x1c ym/mbed-hal-ksdk-mcu/source/mbed-hal-ksdk-mcu.a(fsl_gpio_hal.c.o)
                0x00000000000070f2                GPIO_HAL_WritePinOutput
 .text.PORT_HAL_SetPullMode
                0x000000000000710e       0x1a ym/mbed-hal-ksdk-mcu/source/mbed-hal-ksdk-mcu.a(pinmap.c.o)
 .text.PORT_HAL_SetPullCmd
                0x0000000000007128       0x1c ym/mbed-hal-ksdk-mcu/source/mbed-hal-ksdk-mcu.a(pinmap.c.o)
 .text.CLOCK_HAL_GetClkSrcMode
                0x0000000000007144       0x12 ym/mbed-hal-ksdk-mcu/source/mbed-hal-ksdk-mcu.a(fsl_mcg_hal.c.o)
 .text.CLOCK_HAL_GetOscselMode
                0x0000000000007156       0x14 ym/mbed-hal-ksdk-mcu/source/mbed-hal-ksdk-mcu.a(fsl_mcg_hal.c.o)
 .text.CLOCK_HAL_GetFllClk
                0x000000000000716a       0x8a ym/mbed-hal-ksdk-mcu/source/mbed-hal-ksdk-mcu.a(fsl_mcg_hal.c.o)
                0x000000000000716a                CLOCK_HAL_GetFllClk
 .text._ZN5minar8platform4initEv
                0x00000000000071f4        0x4 ym/minar-platform-mbed/source/minar-platform-mbed.a(mbed_platform.cpp.o)
                0x00000000000071f4                minar::platform::init()
 .text._ZN5minar8platform5sleepEv
                0x00000000000071f8       0x14 ym/minar-platform-mbed/source/minar-platform-mbed.a(mbed_platform.cpp.o)
                0x00000000000071f8                minar::platform::sleep()
 .text._ZN5minar8platform7getTimeEv
                0x000000000000720c        0x4 ym/minar-platform-mbed/source/minar-platform-mbed.a(mbed_platform.cpp.o)
                0x000000000000720c                minar::platform::getTime()
 .text._ZN5minar8platform14sleepFromUntilEmm
                0x0000000000007210       0x56 ym/minar-platform-mbed/source/minar-platform-mbed.a(mbed_platform.cpp.o)
                0x0000000000007210                minar::platform::sleepFromUntil(unsigned long, unsigned long)
 .text.CLOCK_SYS_GetUartFreq
                0x0000000000007266       0x28 ym/mbed-hal-k64f/source/mbed-hal-k64f.a(fsl_clock_K64F12.c.o)
                0x0000000000007266                CLOCK_SYS_GetUartFreq
 .text.mbed_hal_init
                0x000000000000728e        0x2 ym/mbed-hal-frdm-k64f/source/mbed-hal-frdm-k64f.a(init_api.c.o)
                0x000000000000728e                mbed_hal_init
 .text.pinmap_find_peripheral
                0x0000000000007290       0x16 ym/mbed-drivers/source/mbed-drivers.a(pinmap_common.c.o)
                0x0000000000007290                pinmap_find_peripheral
 .text.ticker_irq_handler
                0x00000000000072a6       0x48 ym/mbed-drivers/source/mbed-drivers.a(ticker_api.c.o)
                0x00000000000072a6                ticker_irq_handler
 .text.mbed_exit_sleep
                0x00000000000072ee        0x2 ym/mbed-hal-ksdk-mcu/source/mbed-hal-ksdk-mcu.a(sleep.c.o)
                0x00000000000072ee                mbed_exit_sleep
 .text.SMC_HAL_SetProtection
                0x00000000000072f0       0x40 ym/mbed-hal-ksdk-mcu/source/mbed-hal-ksdk-mcu.a(fsl_smc_hal.c.o)
                0x00000000000072f0                SMC_HAL_SetProtection
 .text.LPTMR_HAL_Disable.constprop.5
                0x0000000000007330       0x14 ym/mbed-hal-ksdk-mcu/source/mbed-hal-ksdk-mcu.a(lp_ticker.c.o)
 .text.LPTMR_HAL_Enable.constprop.6
                0x0000000000007344       0x14 ym/mbed-hal-ksdk-mcu/source/mbed-hal-ksdk-mcu.a(lp_ticker.c.o)
 .text.RTC_HAL_SetSecsReg
                0x0000000000007358       0x26 ym/mbed-hal-ksdk-mcu/source/mbed-hal-ksdk-mcu.a(fsl_rtc_hal.c.o)
 .text.RTC_HAL_SetOscillatorCmd
                0x000000000000737e       0x16 ym/mbed-hal-ksdk-mcu/source/mbed-hal-ksdk-mcu.a(fsl_rtc_hal.c.o)
 .text.RTC_HAL_Enable
                0x0000000000007394        0x6 ym/mbed-hal-ksdk-mcu/source/mbed-hal-ksdk-mcu.a(fsl_rtc_hal.c.o)
                0x0000000000007394                RTC_HAL_Enable
 .text.RTC_HAL_Init
                0x000000000000739a       0x76 ym/mbed-hal-ksdk-mcu/source/mbed-hal-ksdk-mcu.a(fsl_rtc_hal.c.o)
                0x000000000000739a                RTC_HAL_Init
 .text.mbed_ualloc
                0x0000000000007410       0x48 ym/ualloc/source/ualloc.a(ualloc.c.o)
                0x0000000000007410                mbed_ualloc
 .text.dlcalloc
                0x0000000000007458       0x40 ym/dlmalloc/source/dlmalloc.a(dlmalloc.c.o)
                0x0000000000007458                dlcalloc
 .text.__aeabi_atexit
                0x0000000000007498        0xa /usr/local/Cellar/arm-none-eabi-gcc/4.9-2015-q2-update/bin/../lib/gcc/arm-none-eabi/4.9.3/../../../../arm-none-eabi/lib/armv7e-m/libstdc++_nano.a(atexit_arm.o)
                0x0000000000007498                __aeabi_atexit
 .text._ZdlPv   0x00000000000074a2        0x4 /usr/local/Cellar/arm-none-eabi-gcc/4.9-2015-q2-update/bin/../lib/gcc/arm-none-eabi/4.9.3/../../../../arm-none-eabi/lib/armv7e-m/libstdc++_nano.a(del_op.o)
                0x00000000000074a2                operator delete(void*)
 .text._ZdaPv   0x00000000000074a6        0x4 /usr/local/Cellar/arm-none-eabi-gcc/4.9-2015-q2-update/bin/../lib/gcc/arm-none-eabi/4.9.3/../../../../arm-none-eabi/lib/armv7e-m/libstdc++_nano.a(del_opv.o)
                0x00000000000074a6                operator delete[](void*)
 .text._Znwj    0x00000000000074aa       0x22 /usr/local/Cellar/arm-none-eabi-gcc/4.9-2015-q2-update/bin/../lib/gcc/arm-none-eabi/4.9.3/../../../../arm-none-eabi/lib/armv7e-m/libstdc++_nano.a(new_op.o)
                0x00000000000074aa                operator new(unsigned int)
 .text._Znaj    0x00000000000074cc        0x4 /usr/local/Cellar/arm-none-eabi-gcc/4.9-2015-q2-update/bin/../lib/gcc/arm-none-eabi/4.9.3/../../../../arm-none-eabi/lib/armv7e-m/libstdc++_nano.a(new_opv.o)
                0x00000000000074cc                operator new[](unsigned int)
 .text.abort    0x00000000000074d0        0xe /usr/local/Cellar/arm-none-eabi-gcc/4.9-2015-q2-update/bin/../lib/gcc/arm-none-eabi/4.9.3/../../../../arm-none-eabi/lib/armv7e-m/libc_nano.a(lib_a-abort.o)
                0x00000000000074d0                abort
 .text.__sflush_r
                0x00000000000074de      0x108 /usr/local/Cellar/arm-none-eabi-gcc/4.9-2015-q2-update/bin/../lib/gcc/arm-none-eabi/4.9.3/../../../../arm-none-eabi/lib/armv7e-m/libc_nano.a(lib_a-fflush.o)
                0x00000000000074de                __sflush_r
 .text.__sfmoreglue
                0x00000000000075e6       0x2c /usr/local/Cellar/arm-none-eabi-gcc/4.9-2015-q2-update/bin/../lib/gcc/arm-none-eabi/4.9.3/../../../../arm-none-eabi/lib/armv7e-m/libc_nano.a(lib_a-findfp.o)
                0x00000000000075e6                __sfmoreglue
 .text._fwalk_reent
                0x0000000000007612       0x3c /usr/local/Cellar/arm-none-eabi-gcc/4.9-2015-q2-update/bin/../lib/gcc/arm-none-eabi/4.9.3/../../../../arm-none-eabi/lib/armv7e-m/libc_nano.a(lib_a-fwalk.o)
                0x0000000000007612                _fwalk_reent
 .text.memset   0x000000000000764e       0x10 /usr/local/Cellar/arm-none-eabi-gcc/4.9-2015-q2-update/bin/../lib/gcc/arm-none-eabi/4.9.3/../../../../arm-none-eabi/lib/armv7e-m/libc_nano.a(lib_a-memset.o)
                0x000000000000764e                memset
 .text.__sfputc_r
                0x000000000000765e       0x2c /usr/local/Cellar/arm-none-eabi-gcc/4.9-2015-q2-update/bin/../lib/gcc/arm-none-eabi/4.9.3/../../../../arm-none-eabi/lib/armv7e-m/libc_nano.a(lib_a-nano-vfprintf.o)
 .text.__sfputs_r
                0x000000000000768a       0x24 /usr/local/Cellar/arm-none-eabi-gcc/4.9-2015-q2-update/bin/../lib/gcc/arm-none-eabi/4.9.3/../../../../arm-none-eabi/lib/armv7e-m/libc_nano.a(lib_a-nano-vfprintf.o)
                0x000000000000768a                __sfputs_r
 .text._printf_common
                0x00000000000076ae       0xea /usr/local/Cellar/arm-none-eabi-gcc/4.9-2015-q2-update/bin/../lib/gcc/arm-none-eabi/4.9.3/../../../../arm-none-eabi/lib/armv7e-m/libc_nano.a(lib_a-nano-vfprintf_i.o)
                0x00000000000076ae                _printf_common
 .text._puts_r  0x0000000000007798       0xbc /usr/local/Cellar/arm-none-eabi-gcc/4.9-2015-q2-update/bin/../lib/gcc/arm-none-eabi/4.9.3/../../../../arm-none-eabi/lib/armv7e-m/libc_nano.a(lib_a-puts.o)
                0x0000000000007798                _puts_r
 .text._raise_r
                0x0000000000007854       0x50 /usr/local/Cellar/arm-none-eabi-gcc/4.9-2015-q2-update/bin/../lib/gcc/arm-none-eabi/4.9.3/../../../../arm-none-eabi/lib/armv7e-m/libc_nano.a(lib_a-signal.o)
                0x0000000000007854                _raise_r
 .text._getpid_r
                0x00000000000078a4        0x4 /usr/local/Cellar/arm-none-eabi-gcc/4.9-2015-q2-update/bin/../lib/gcc/arm-none-eabi/4.9.3/../../../../arm-none-eabi/lib/armv7e-m/libc_nano.a(lib_a-signalr.o)
                0x00000000000078a4                _getpid_r
 .text.__sread  0x00000000000078a8       0x22 /usr/local/Cellar/arm-none-eabi-gcc/4.9-2015-q2-update/bin/../lib/gcc/arm-none-eabi/4.9.3/../../../../arm-none-eabi/lib/armv7e-m/libc_nano.a(lib_a-stdio.o)
                0x00000000000078a8                __sread
 .text.__swrite
                0x00000000000078ca       0x38 /usr/local/Cellar/arm-none-eabi-gcc/4.9-2015-q2-update/bin/../lib/gcc/arm-none-eabi/4.9.3/../../../../arm-none-eabi/lib/armv7e-m/libc_nano.a(lib_a-stdio.o)
                0x00000000000078ca                __swrite
 .text.__sseek  0x0000000000007902       0x24 /usr/local/Cellar/arm-none-eabi-gcc/4.9-2015-q2-update/bin/../lib/gcc/arm-none-eabi/4.9.3/../../../../arm-none-eabi/lib/armv7e-m/libc_nano.a(lib_a-stdio.o)
                0x0000000000007902                __sseek
 .text.__sclose
                0x0000000000007926        0x8 /usr/local/Cellar/arm-none-eabi-gcc/4.9-2015-q2-update/bin/../lib/gcc/arm-none-eabi/4.9.3/../../../../arm-none-eabi/lib/armv7e-m/libc_nano.a(lib_a-stdio.o)
                0x0000000000007926                __sclose
 .text.memchr   0x000000000000792e       0x1e /usr/local/Cellar/arm-none-eabi-gcc/4.9-2015-q2-update/bin/../lib/gcc/arm-none-eabi/4.9.3/../../../../arm-none-eabi/lib/armv7e-m/libc_nano.a(lib_a-memchr.o)
                0x000000000000792e                memchr
 .text._ZN4mbed4util10atomic_casImEEbPT_S3_S2_
                0x000000000000794c       0x1e ym/core-util/source/core-util.a(sbrk.cpp.o)
                0x000000000000794c                bool mbed::util::atomic_cas<unsigned long>(unsigned long*, unsigned long*, unsigned long)
 .text.mbed_krbs
                0x000000000000796a        0x6 ym/core-util/source/core-util.a(sbrk.cpp.o)
                0x000000000000796a                mbed_krbs
 .text.__wrap__malloc_r
                0x0000000000007970        0xc ym/ualloc/source/ualloc.a(malloc.c.o)
                0x0000000000007970                __wrap__malloc_r
 .text.__wrap__free_r
                0x000000000000797c        0x6 ym/ualloc/source/ualloc.a(malloc.c.o)
                0x000000000000797c                __wrap__free_r
 *(SORT(.init))
 *fill*         0x0000000000007982        0x2 
 .init          0x0000000000007984        0x4 /usr/local/Cellar/arm-none-eabi-gcc/4.9-2015-q2-update/bin/../lib/gcc/arm-none-eabi/4.9.3/armv7e-m/crti.o
                0x0000000000007984                _init
 .init          0x0000000000007988        0x8 /usr/local/Cellar/arm-none-eabi-gcc/4.9-2015-q2-update/bin/../lib/gcc/arm-none-eabi/4.9.3/armv7e-m/crtn.o
 *(SORT(.fini))
 .fini          0x0000000000007990        0x4 /usr/local/Cellar/arm-none-eabi-gcc/4.9-2015-q2-update/bin/../lib/gcc/arm-none-eabi/4.9.3/armv7e-m/crti.o
                0x0000000000007990                _fini
 .fini          0x0000000000007994        0x8 /usr/local/Cellar/arm-none-eabi-gcc/4.9-2015-q2-update/bin/../lib/gcc/arm-none-eabi/4.9.3/armv7e-m/crtn.o
 *crtbegin.o(SORT(.ctors))
 *crtbegin?.o(SORT(.ctors))
 *(SORT(EXCLUDE_FILE(*crtend.o *crtend?.o) .ctors))
 *(SORT(.ctors.*))
 *(SORT(.ctors))
 *crtbegin.o(SORT(.dtors))
 *crtbegin?.o(SORT(.dtors))
 *(SORT(EXCLUDE_FILE(*crtend.o *crtend?.o) .dtors))
 *(SORT(.dtors.*))
 *(SORT(.dtors))
 *(SORT(.rodata*))
 *fill*         0x000000000000799c        0x4 
 .rodata._ZTVN4mbed4util19FunctionPointerBindIvEE
                0x00000000000079a0       0x14 ym/mbed-drivers/source/mbed-drivers.a(retarget.cpp.o)
                0x00000000000079a0                vtable for mbed::util::FunctionPointerBind<void>
 *fill*         0x00000000000079b4        0x4 
 .rodata._ZTVN4mbed4util16FunctionPointer2IviPPcEE
                0x00000000000079b8       0x14 ym/mbed-drivers/source/mbed-drivers.a(retarget.cpp.o)
                0x00000000000079b8                vtable for mbed::util::FunctionPointer2<void, int, char**>
 .rodata._ZN4mbed4util16FunctionPointer2IviPPcE8_fp2_opsE
                0x00000000000079cc        0xc ym/mbed-drivers/source/mbed-drivers.a(retarget.cpp.o)
                0x00000000000079cc                mbed::util::FunctionPointer2<void, int, char**>::_fp2_ops
 .rodata._ZN4mbed4util19FunctionPointerBaseIvE8_nullopsE
                0x00000000000079d8        0xc ym/mbed-drivers/source/mbed-drivers.a(retarget.cpp.o)
                0x00000000000079d8                mbed::util::FunctionPointerBase<void>::_nullops
 .rodata        0x00000000000079e4       0x14 ym/mbed-drivers/source/mbed-drivers.a(board.c.o)
 .rodata        0x00000000000079f8       0x14 ym/mbed-drivers/source/mbed-drivers.a(gpio.c.o)
 .rodata        0x0000000000007a0c       0x14 source/ds1820-mbedos.a(DS1820.cpp.o)
 .rodata        0x0000000000007a20       0x18 ym/mbed-hal-ksdk-mcu/source/mbed-hal-ksdk-mcu.a(serial_api.c.o)
 .rodata.g_simBaseAddr
                0x0000000000007a38        0x4 ym/mbed-hal-ksdk-mcu/source/mbed-hal-ksdk-mcu.a(fsl_clock_manager.c.o)
                0x0000000000007a38                g_simBaseAddr
 .rodata        0x0000000000007a3c       0x28 ym/mbed-hal-ksdk-mcu/source/mbed-hal-ksdk-mcu.a(gpio_api.c.o)
 .rodata        0x0000000000007a64       0x14 ym/mbed-hal-ksdk-mcu/source/mbed-hal-ksdk-mcu.a(pinmap.c.o)
 .rodata.PinMap_UART_RX
                0x0000000000007a78       0x90 ym/mbed-hal-frdm-k64f/source/mbed-hal-frdm-k64f.a(PeripheralPins.c.o)
                0x0000000000007a78                PinMap_UART_RX
 .rodata.PinMap_UART_TX
                0x0000000000007b08       0x90 ym/mbed-hal-frdm-k64f/source/mbed-hal-frdm-k64f.a(PeripheralPins.c.o)
                0x0000000000007b08                PinMap_UART_TX
 .rodata.us_interface
                0x0000000000007b98       0x14 ym/mbed-drivers/source/mbed-drivers.a(us_ticker_api.c.o)
 .rodata.us_data
                0x0000000000007bac        0x8 ym/mbed-drivers/source/mbed-drivers.a(us_ticker_api.c.o)
 .rodata.__sf_fake_stdin
                0x0000000000007bb4       0x20 /usr/local/Cellar/arm-none-eabi-gcc/4.9-2015-q2-update/bin/../lib/gcc/arm-none-eabi/4.9.3/../../../../arm-none-eabi/lib/armv7e-m/libc_nano.a(lib_a-findfp.o)
                0x0000000000007bb4                __sf_fake_stdin
 .rodata.__sf_fake_stdout
                0x0000000000007bd4       0x20 /usr/local/Cellar/arm-none-eabi-gcc/4.9-2015-q2-update/bin/../lib/gcc/arm-none-eabi/4.9.3/../../../../arm-none-eabi/lib/armv7e-m/libc_nano.a(lib_a-findfp.o)
                0x0000000000007bd4                __sf_fake_stdout
 .rodata.__sf_fake_stderr
                0x0000000000007bf4       0x20 /usr/local/Cellar/arm-none-eabi-gcc/4.9-2015-q2-update/bin/../lib/gcc/arm-none-eabi/4.9.3/../../../../arm-none-eabi/lib/armv7e-m/libc_nano.a(lib_a-findfp.o)
                0x0000000000007bf4                __sf_fake_stderr
 .rodata._global_impure_ptr
                0x0000000000007c14        0x4 /usr/local/Cellar/arm-none-eabi-gcc/4.9-2015-q2-update/bin/../lib/gcc/arm-none-eabi/4.9.3/../../../../arm-none-eabi/lib/armv7e-m/libc_nano.a(lib_a-impure.o)
                0x0000000000007c14                _global_impure_ptr
 .rodata.str1.1
                0x0000000000007c18       0x34 test/CMakeFiles/ds1820-mbedos-test-sense.dir/Users/andrewbrannan/converge/code/DS1820-mbedOS/test/sense.cpp.o
 .rodata.str1.1
                0x0000000000007c4c       0x7a source/ds1820-mbedos.a(DS1820.cpp.o)
 .rodata.str1.1
                0x0000000000007cc6      0x162 ym/minar/source/minar.a(minar.cpp.o)
 .rodata.str1.1
                0x0000000000007e28       0x54 ym/core-util/source/core-util.a(core-util_mbed_os.c.o)
                                         0x57 (size before relaxing)
 .rodata.kClockNameConfigTable
                0x0000000000007e7c       0x12 ym/mbed-hal-k64f/source/mbed-hal-k64f.a(fsl_sim_hal_K64F12.c.o)
                0x0000000000007e7c                kClockNameConfigTable
 .rodata.str1.1
                0x0000000000007e8e       0x60 ym/mbed-drivers/source/mbed-drivers.a(pinmap_common.c.o)
 .rodata        0x0000000000007eee        0x3 ym/mbed-hal-ksdk-mcu/source/mbed-hal-ksdk-mcu.a(sleep.c.o)
 .rodata.str1.1
                0x0000000000007ef1        0x2 /usr/local/Cellar/arm-none-eabi-gcc/4.9-2015-q2-update/bin/../lib/gcc/arm-none-eabi/4.9.3/../../../../arm-none-eabi/lib/armv7e-m/libc_nano.a(lib_a-impure.o)
 .rodata.str1.1
                0x0000000000007ef3       0x11 /usr/local/Cellar/arm-none-eabi-gcc/4.9-2015-q2-update/bin/../lib/gcc/arm-none-eabi/4.9.3/../../../../arm-none-eabi/lib/armv7e-m/libc_nano.a(lib_a-nano-vfprintf.o)
 .rodata.str1.1
                0x0000000000007f04       0x22 /usr/local/Cellar/arm-none-eabi-gcc/4.9-2015-q2-update/bin/../lib/gcc/arm-none-eabi/4.9.3/../../../../arm-none-eabi/lib/armv7e-m/libc_nano.a(lib_a-nano-vfprintf_i.o)
 *(SORT(.eh_frame*))
 *fill*         0x0000000000007f26        0x2 
 .eh_frame      0x0000000000007f28        0x0 /usr/local/Cellar/arm-none-eabi-gcc/4.9-2015-q2-update/bin/../lib/gcc/arm-none-eabi/4.9.3/armv7e-m/crtbegin.o
 .eh_frame      0x0000000000007f28        0x0 /usr/local/Cellar/arm-none-eabi-gcc/4.9-2015-q2-update/bin/../lib/gcc/arm-none-eabi/4.9.3/../../../../arm-none-eabi/lib/armv7e-m/libc_nano.a(lib_a-strcmp.o)
                                         0x28 (size before relaxing)
 .eh_frame      0x0000000000007f28        0x4 /usr/local/Cellar/arm-none-eabi-gcc/4.9-2015-q2-update/bin/../lib/gcc/arm-none-eabi/4.9.3/armv7e-m/crtend.o

.glue_7         0x0000000000007f2c        0x0
 .glue_7        0x0000000000000000        0x0 linker stubs

.glue_7t        0x0000000000007f2c        0x0
 .glue_7t       0x0000000000000000        0x0 linker stubs

.vfp11_veneer   0x0000000000007f2c        0x0
 .vfp11_veneer  0x0000000000000000        0x0 linker stubs

.v4_bx          0x0000000000007f2c        0x0
 .v4_bx         0x0000000000000000        0x0 linker stubs

.iplt           0x0000000000007f2c        0x0
 .iplt          0x0000000000000000        0x0 /usr/local/Cellar/arm-none-eabi-gcc/4.9-2015-q2-update/bin/../lib/gcc/arm-none-eabi/4.9.3/armv7e-m/crtbegin.o

.ARM.extab
 *(SORT(.ARM.extab*) SORT(.gnu.linkonce.armextab.*))

.ARM.exidx      0x0000000000007f2c        0x8
                0x0000000000007f2c                __exidx_start = .
 *(SORT(.ARM.exidx*) SORT(.gnu.linkonce.armexidx.*))
 .ARM.exidx     0x0000000000007f2c        0x8 /usr/local/Cellar/arm-none-eabi-gcc/4.9-2015-q2-update/bin/../lib/gcc/arm-none-eabi/4.9.3/../../../../arm-none-eabi/lib/armv7e-m/crt0.o
                0x0000000000007f34                __exidx_end = .

.rel.dyn        0x0000000000007f34        0x0
 .rel.iplt      0x0000000000000000        0x0 /usr/local/Cellar/arm-none-eabi-gcc/4.9-2015-q2-update/bin/../lib/gcc/arm-none-eabi/4.9.3/armv7e-m/crtbegin.o

.stack          0x000000001fff2200     0x8000
                0x000000001fff2200                __StackLimit = .
 *(SORT(.stack*))
 .stack         0x000000001fff2200      0xc00 ym/mbed-hal-k64f/source/mbed-hal-k64f.a(startup_MK64F12.S.obj)
                0x000000001fffa200                . = (. + (0x8000 - (. - __StackLimit)))
 *fill*         0x000000001fff2e00     0x7400 
                0x000000001fffa200                __StackTop = (ADDR (.stack) + SIZEOF (.stack))
                0x000000001fff2200                __StackLimit = ADDR (.stack)
                0x000000001fffa200                PROVIDE (__stack, __StackTop)

.data           0x000000001fffa200       0xa0 load address 0x0000000000007f34
                0x0000000000007f34                PROVIDE (__etext, LOADADDR (.data))
                0x000000001fffa200                __data_start__ = .
 *(SORT(vtable))
 *(SORT(.data*))
 .data          0x000000001fffa200        0x4 /usr/local/Cellar/arm-none-eabi-gcc/4.9-2015-q2-update/bin/../lib/gcc/arm-none-eabi/4.9.3/armv7e-m/crtbegin.o
                0x000000001fffa200                __dso_handle
 .data.lp_compare_value
                0x000000001fffa204        0x4 ym/mbed-hal-ksdk-mcu/source/mbed-hal-ksdk-mcu.a(lp_ticker.c.o)
 .data.impure_data
                0x000000001fffa208       0x60 /usr/local/Cellar/arm-none-eabi-gcc/4.9-2015-q2-update/bin/../lib/gcc/arm-none-eabi/4.9.3/../../../../arm-none-eabi/lib/armv7e-m/libc_nano.a(lib_a-impure.o)
 .data._impure_ptr
                0x000000001fffa268        0x4 /usr/local/Cellar/arm-none-eabi-gcc/4.9-2015-q2-update/bin/../lib/gcc/arm-none-eabi/4.9.3/../../../../arm-none-eabi/lib/armv7e-m/libc_nano.a(lib_a-impure.o)
                0x000000001fffa268                _impure_ptr
 .data.mbed_sbrk_diff
                0x000000001fffa26c        0x4 ym/core-util/source/core-util.a(sbrk.cpp.o)
                0x000000001fffa26c                mbed_sbrk_diff
 .data.mbed_sbrk_ptr
                0x000000001fffa270        0x4 ym/core-util/source/core-util.a(sbrk.cpp.o)
                0x000000001fffa270                mbed_sbrk_ptr
 .data.mbed_krbs_ptr
                0x000000001fffa274        0x4 ym/core-util/source/core-util.a(sbrk.cpp.o)
                0x000000001fffa274                mbed_krbs_ptr
                0x000000001fffa278                . = ALIGN (0x4)
                0x000000001fffa278                PROVIDE (__preinit_array_start, .)
 *(SORT(.preinit_array))
                0x000000001fffa278                PROVIDE (__preinit_array_end, .)
                0x000000001fffa278                . = ALIGN (0x4)
                0x000000001fffa278                PROVIDE (__init_array_start, .)
 *(SORT(.init_array.*))
 *(SORT(.init_array))
 .init_array    0x000000001fffa278        0x4 /usr/local/Cellar/arm-none-eabi-gcc/4.9-2015-q2-update/bin/../lib/gcc/arm-none-eabi/4.9.3/armv7e-m/crtbegin.o
 .init_array    0x000000001fffa27c        0x4 source/ds1820-mbedos.a(DS1820.cpp.o)
                0x000000001fffa280                PROVIDE (__init_array_end, .)
                0x000000001fffa280                . = ALIGN (0x4)
                0x000000001fffa280                PROVIDE (__fini_array_start, .)
 *(SORT(.fini_array.*))
 *(SORT(.fini_array))
 .fini_array    0x000000001fffa280        0x4 /usr/local/Cellar/arm-none-eabi-gcc/4.9-2015-q2-update/bin/../lib/gcc/arm-none-eabi/4.9.3/armv7e-m/crtbegin.o
                0x000000001fffa284                PROVIDE (__fini_array_end, .)
                0x000000001fffa2a0                . = ALIGN (0x20)
 *fill*         0x000000001fffa284       0x1c 
                0x000000001fffa2a0                __data_end__ = .

.jcr            0x000000001fffa2a0        0x0 load address 0x0000000000007fd4
 .jcr           0x000000001fffa2a0        0x0 /usr/local/Cellar/arm-none-eabi-gcc/4.9-2015-q2-update/bin/../lib/gcc/arm-none-eabi/4.9.3/armv7e-m/crtbegin.o

.igot.plt       0x000000001fffa2a0        0x0 load address 0x0000000000007fd4
 .igot.plt      0x0000000000000000        0x0 /usr/local/Cellar/arm-none-eabi-gcc/4.9-2015-q2-update/bin/../lib/gcc/arm-none-eabi/4.9.3/armv7e-m/crtbegin.o

.uvisor.secure  0x0000000000007fd4        0xc
                0x0000000000007fe0                . = ALIGN (0x20)
 *fill*         0x0000000000007fd4        0xc 
                0x0000000000007fe0                __uvisor_secure_start = .
                0x0000000000007fe0                . = ALIGN (0x20)
                0x0000000000007fe0                __uvisor_cfgtbl_start = .
 *(SORT(.keep.uvisor.cfgtbl))
                0x0000000000007fe0                . = ALIGN (0x20)
                0x0000000000007fe0                __uvisor_cfgtbl_end = .
                0x0000000000007fe0                __uvisor_cfgtbl_ptr_start = .
 *(SORT(.keep.uvisor.cfgtbl_ptr_first))
 *(SORT(.keep.uvisor.cfgtbl_ptr))
                0x0000000000007fe0                __uvisor_cfgtbl_ptr_end = .
                0x0000000000007fe0                __uvisor_data_src = .
                0x0000000000007fe0                __uvisor_data_start = .
                0x0000000000007fe0                __uvisor_data_end = .
                0x0000000000007fe0                . = ALIGN (0x20)
                0x0000000000007fe0                __uvisor_secure_end = .

.bss            0x000000001fffa2a0      0x3e8
                0x000000001fffa2a0                __bss_start__ = .
 *(SORT(.bss*))
 .bss           0x000000001fffa2a0       0x1c /usr/local/Cellar/arm-none-eabi-gcc/4.9-2015-q2-update/bin/../lib/gcc/arm-none-eabi/4.9.3/armv7e-m/crtbegin.o
 .bss.probe     0x000000001fffa2bc       0x40 test/CMakeFiles/ds1820-mbedos-test-sense.dir/Users/andrewbrannan/converge/code/DS1820-mbedOS/test/sense.cpp.o
                0x000000001fffa2bc                probe
 .bss._ZL11filehandles
                0x000000001fffa2fc      0x100 ym/mbed-drivers/source/mbed-drivers.a(retarget.cpp.o)
 .bss._ZN6DS18206probesE
                0x000000001fffa3fc        0x4 source/ds1820-mbedos.a(DS1820.cpp.o)
                0x000000001fffa3fc                DS1820::probes
 .bss._ZZN5minar12CallbackNode13get_allocatorEvE9allocator
                0x000000001fffa400        0x4 ym/minar/source/minar.a(minar.cpp.o)
                0x000000001fffa400                minar::CallbackNode::get_allocator()::allocator
 .bss._ZGVZN5minar13SchedulerData5startEvE19Warn_Duration_Ticks
                0x000000001fffa404        0x4 ym/minar/source/minar.a(minar.cpp.o)
 .bss._ZZN5minar13SchedulerData5startEvE19Warn_Duration_Ticks
                0x000000001fffa408        0x4 ym/minar/source/minar.a(minar.cpp.o)
 .bss._ZZN5minar13SchedulerData5startEvE14Warn_Lag_Ticks
                0x000000001fffa40c        0x4 ym/minar/source/minar.a(minar.cpp.o)
 .bss._ZN5minarL15staticSchedulerE
                0x000000001fffa410        0x4 ym/minar/source/minar.a(minar.cpp.o)
 .bss._ZGVZN5minar13SchedulerData5startEvE14Warn_Lag_Ticks
                0x000000001fffa414        0x4 ym/minar/source/minar.a(minar.cpp.o)
 .bss.stdio_uart_inited
                0x000000001fffa418        0x4 ym/mbed-hal-ksdk-mcu/source/mbed-hal-ksdk-mcu.a(serial_api.c.o)
                0x000000001fffa418                stdio_uart_inited
 .bss.serial_irq_ids
                0x000000001fffa41c       0x14 ym/mbed-hal-ksdk-mcu/source/mbed-hal-ksdk-mcu.a(serial_api.c.o)
 .bss.irq_handler
                0x000000001fffa430        0x4 ym/mbed-hal-ksdk-mcu/source/mbed-hal-ksdk-mcu.a(serial_api.c.o)
 .bss.us_ticker_inited
                0x000000001fffa434        0x4 ym/mbed-hal-ksdk-mcu/source/mbed-hal-ksdk-mcu.a(us_ticker.c.o)
 .bss.events    0x000000001fffa438        0x8 ym/mbed-drivers/source/mbed-drivers.a(us_ticker_api.c.o)
 .bss.lp_ticker_inited
                0x000000001fffa440        0x4 ym/mbed-hal-ksdk-mcu/source/mbed-hal-ksdk-mcu.a(lp_ticker.c.o)
 .bss.lp_lptmr_schedule_ticks
                0x000000001fffa444        0x4 ym/mbed-hal-ksdk-mcu/source/mbed-hal-ksdk-mcu.a(lp_ticker.c.o)
 .bss._gm_      0x000000001fffa448      0x1d8 ym/dlmalloc/source/dlmalloc.a(dlmalloc.c.o)
 .bss.mparams   0x000000001fffa620       0x18 ym/dlmalloc/source/dlmalloc.a(dlmalloc.c.o)
 .bss._ZN12_GLOBAL__N_113__new_handlerE
                0x000000001fffa638        0x4 /usr/local/Cellar/arm-none-eabi-gcc/4.9-2015-q2-update/bin/../lib/gcc/arm-none-eabi/4.9.3/../../../../arm-none-eabi/lib/armv7e-m/libstdc++_nano.a(new_handler.o)
 .bss.lp_ticker_lptmr_scheduled_flag
                0x000000001fffa63c        0x1 ym/mbed-hal-ksdk-mcu/source/mbed-hal-ksdk-mcu.a(lp_ticker.c.o)
 .bss           0x000000001fffa63d        0x4 ym/uvisor-lib/source/uvisor-lib.a(uvisor.o)
                0x000000001fffa63d                uvisor_ctx
 *(SORT(COMMON))
 *fill*         0x000000001fffa641        0x3 
 COMMON         0x000000001fffa644       0x40 ym/mbed-hal-ksdk-mcu/source/mbed-hal-ksdk-mcu.a(serial_api.c.o)
                0x000000001fffa644                stdio_uart
 COMMON         0x000000001fffa684        0x4 /usr/local/Cellar/arm-none-eabi-gcc/4.9-2015-q2-update/bin/../lib/gcc/arm-none-eabi/4.9.3/../../../../arm-none-eabi/lib/armv7e-m/libc_nano.a(lib_a-reent.o)
                0x000000001fffa684                errno
                0x000000001fffa688                __bss_end__ = .

.heap           0x000000001fffa688    0x35978
                0x000000001fffa688                __end__ = .
                0x000000001fffa688                end = __end__
 *(SORT(.heap*))
 .heap          0x000000001fffa688      0x400 ym/mbed-hal-k64f/source/mbed-hal-k64f.a(startup_MK64F12.S.obj)
                0x000000001fffa688                __HeapBase
                0x0000000020030000                . = (. + ((ORIGIN (RAM) + 0x3fe00) - .))
 *fill*         0x000000001fffaa88    0x35578 
                0x0000000020030000                __HeapLimit = .
                0x0000000000035978                PROVIDE (__heap_size, SIZEOF (.heap))
                0x000000001fffa688                PROVIDE (__mbed_sbrk_start, ADDR (.heap))
                0x0000000020030000                PROVIDE (__mbed_krbs_start, (ADDR (.heap) + SIZEOF (.heap)))
OUTPUT(test/ds1820-mbedos-test-sense elf32-littlearm)

.ARM.attributes
                0x0000000000000000       0x2a
 .ARM.attributes
                0x0000000000000000       0x1e /usr/local/Cellar/arm-none-eabi-gcc/4.9-2015-q2-update/bin/../lib/gcc/arm-none-eabi/4.9.3/armv7e-m/crti.o
 .ARM.attributes
                0x000000000000001e       0x2e /usr/local/Cellar/arm-none-eabi-gcc/4.9-2015-q2-update/bin/../lib/gcc/arm-none-eabi/4.9.3/armv7e-m/crtbegin.o
 .ARM.attributes
                0x000000000000004c       0x1c /usr/local/Cellar/arm-none-eabi-gcc/4.9-2015-q2-update/bin/../lib/gcc/arm-none-eabi/4.9.3/../../../../arm-none-eabi/lib/armv7e-m/crt0.o
 .ARM.attributes
                0x0000000000000068       0x33 test/CMakeFiles/ds1820-mbedos-test-sense.dir/Users/andrewbrannan/converge/code/DS1820-mbedOS/test/sense.cpp.o
 .ARM.attributes
                0x000000000000009b       0x33 ym/mbed-drivers/source/mbed-drivers.a(retarget.cpp.o)
 .ARM.attributes
                0x00000000000000ce       0x33 ym/mbed-drivers/source/mbed-drivers.a(exit.c.o)
 .ARM.attributes
                0x0000000000000101       0x33 ym/mbed-drivers/source/mbed-drivers.a(board.c.o)
 .ARM.attributes
                0x0000000000000134       0x33 ym/mbed-drivers/source/mbed-drivers.a(wait_api.c.o)
 .ARM.attributes
                0x0000000000000167       0x33 ym/mbed-drivers/source/mbed-drivers.a(error.c.o)
 .ARM.attributes
                0x000000000000019a       0x33 ym/mbed-drivers/source/mbed-drivers.a(gpio.c.o)
 .ARM.attributes
                0x00000000000001cd       0x33 source/ds1820-mbedos.a(DS1820.cpp.o)
 .ARM.attributes
                0x0000000000000200       0x33 source/ds1820-mbedos.a(LinkedList.cpp.o)
 .ARM.attributes
                0x0000000000000233       0x33 ym/minar/source/minar.a(minar.cpp.o)
 .ARM.attributes
                0x0000000000000266       0x33 ym/core-util/source/core-util.a(ExtendablePoolAllocator.cpp.o)
 .ARM.attributes
                0x0000000000000299       0x33 ym/core-util/source/core-util.a(PoolAllocator.cpp.o)
 .ARM.attributes
                0x00000000000002cc       0x33 ym/core-util/source/core-util.a(core-util_mbed_os.c.o)
 .ARM.attributes
                0x00000000000002ff       0x33 ym/mbed-hal-ksdk-mcu/source/mbed-hal-ksdk-mcu.a(serial_api.c.o)
 .ARM.attributes
                0x0000000000000332       0x33 ym/mbed-hal-ksdk-mcu/source/mbed-hal-ksdk-mcu.a(fsl_clock_manager.c.o)
 .ARM.attributes
                0x0000000000000365       0x33 ym/mbed-hal-ksdk-mcu/source/mbed-hal-ksdk-mcu.a(gpio_api.c.o)
 .ARM.attributes
                0x0000000000000398       0x33 ym/mbed-hal-ksdk-mcu/source/mbed-hal-ksdk-mcu.a(us_ticker.c.o)
 .ARM.attributes
                0x00000000000003cb       0x33 ym/mbed-hal-ksdk-mcu/source/mbed-hal-ksdk-mcu.a(fsl_uart_hal.c.o)
 .ARM.attributes
                0x00000000000003fe       0x33 ym/mbed-hal-ksdk-mcu/source/mbed-hal-ksdk-mcu.a(fsl_sim_hal.c.o)
 .ARM.attributes
                0x0000000000000431       0x33 ym/mbed-hal-ksdk-mcu/source/mbed-hal-ksdk-mcu.a(fsl_gpio_hal.c.o)
 .ARM.attributes
                0x0000000000000464       0x33 ym/mbed-hal-ksdk-mcu/source/mbed-hal-ksdk-mcu.a(pinmap.c.o)
 .ARM.attributes
                0x0000000000000497       0x33 ym/mbed-hal-ksdk-mcu/source/mbed-hal-ksdk-mcu.a(fsl_mcg_hal.c.o)
 .ARM.attributes
                0x00000000000004ca       0x33 ym/minar-platform-mbed/source/minar-platform-mbed.a(mbed_platform.cpp.o)
 .ARM.attributes
                0x00000000000004fd       0x1b ym/mbed-hal-k64f/source/mbed-hal-k64f.a(startup_MK64F12.S.obj)
 .ARM.attributes
                0x0000000000000518       0x33 ym/mbed-hal-k64f/source/mbed-hal-k64f.a(fsl_clock_K64F12.c.o)
 .ARM.attributes
                0x000000000000054b       0x33 ym/mbed-hal-k64f/source/mbed-hal-k64f.a(fsl_sim_hal_K64F12.c.o)
 .ARM.attributes
                0x000000000000057e       0x33 ym/mbed-hal-frdm-k64f/source/mbed-hal-frdm-k64f.a(init_api.c.o)
 .ARM.attributes
                0x00000000000005b1       0x33 ym/mbed-hal-frdm-k64f/source/mbed-hal-frdm-k64f.a(PeripheralPins.c.o)
 .ARM.attributes
                0x00000000000005e4       0x33 ym/mbed-drivers/source/mbed-drivers.a(pinmap_common.c.o)
 .ARM.attributes
                0x0000000000000617       0x33 ym/mbed-drivers/source/mbed-drivers.a(us_ticker_api.c.o)
 .ARM.attributes
                0x000000000000064a       0x33 ym/mbed-drivers/source/mbed-drivers.a(ticker_api.c.o)
 .ARM.attributes
                0x000000000000067d       0x33 ym/mbed-hal-ksdk-mcu/source/mbed-hal-ksdk-mcu.a(sleep.c.o)
 .ARM.attributes
                0x00000000000006b0       0x33 ym/mbed-hal-ksdk-mcu/source/mbed-hal-ksdk-mcu.a(fsl_smc_hal.c.o)
 .ARM.attributes
                0x00000000000006e3       0x33 ym/mbed-hal-ksdk-mcu/source/mbed-hal-ksdk-mcu.a(lp_ticker.c.o)
 .ARM.attributes
                0x0000000000000716       0x33 ym/mbed-hal-ksdk-mcu/source/mbed-hal-ksdk-mcu.a(fsl_rtc_hal.c.o)
 .ARM.attributes
                0x0000000000000749       0x33 ym/ualloc/source/ualloc.a(ualloc.c.o)
 .ARM.attributes
                0x000000000000077c       0x33 ym/dlmalloc/source/dlmalloc.a(dlmalloc.c.o)
 .ARM.attributes
                0x00000000000007af       0x33 ym/cmsis-core-k64f/source/cmsis-core-k64f.a(system_MK64F12.c.o)
 .ARM.attributes
                0x00000000000007e2       0x1c ym/uvisor-lib/source/uvisor-lib.a(uvisor.o)
 .ARM.attributes
                0x00000000000007fe       0x33 ym/uvisor-lib/source/uvisor-lib.a(interrupts.cpp.o)
 .ARM.attributes
                0x0000000000000831       0x2e /usr/local/Cellar/arm-none-eabi-gcc/4.9-2015-q2-update/bin/../lib/gcc/arm-none-eabi/4.9.3/../../../../arm-none-eabi/lib/armv7e-m/libstdc++_nano.a(atexit_arm.o)
 .ARM.attributes
                0x000000000000085f       0x2e /usr/local/Cellar/arm-none-eabi-gcc/4.9-2015-q2-update/bin/../lib/gcc/arm-none-eabi/4.9.3/../../../../arm-none-eabi/lib/armv7e-m/libstdc++_nano.a(del_op.o)
 .ARM.attributes
                0x000000000000088d       0x2e /usr/local/Cellar/arm-none-eabi-gcc/4.9-2015-q2-update/bin/../lib/gcc/arm-none-eabi/4.9.3/../../../../arm-none-eabi/lib/armv7e-m/libstdc++_nano.a(del_opv.o)
 .ARM.attributes
                0x00000000000008bb       0x2e /usr/local/Cellar/arm-none-eabi-gcc/4.9-2015-q2-update/bin/../lib/gcc/arm-none-eabi/4.9.3/../../../../arm-none-eabi/lib/armv7e-m/libstdc++_nano.a(new_op.o)
 .ARM.attributes
                0x00000000000008e9       0x2e /usr/local/Cellar/arm-none-eabi-gcc/4.9-2015-q2-update/bin/../lib/gcc/arm-none-eabi/4.9.3/../../../../arm-none-eabi/lib/armv7e-m/libstdc++_nano.a(new_opv.o)
 .ARM.attributes
                0x0000000000000917       0x2e /usr/local/Cellar/arm-none-eabi-gcc/4.9-2015-q2-update/bin/../lib/gcc/arm-none-eabi/4.9.3/../../../../arm-none-eabi/lib/armv7e-m/libstdc++_nano.a(new_handler.o)
 .ARM.attributes
                0x0000000000000945       0x1e /usr/local/Cellar/arm-none-eabi-gcc/4.9-2015-q2-update/bin/../lib/gcc/arm-none-eabi/4.9.3/armv7e-m/libgcc.a(_arm_addsubdf3.o)
 .ARM.attributes
                0x0000000000000963       0x1e /usr/local/Cellar/arm-none-eabi-gcc/4.9-2015-q2-update/bin/../lib/gcc/arm-none-eabi/4.9.3/armv7e-m/libgcc.a(_arm_truncdfsf2.o)
 .ARM.attributes
                0x0000000000000981       0x1e /usr/local/Cellar/arm-none-eabi-gcc/4.9-2015-q2-update/bin/../lib/gcc/arm-none-eabi/4.9.3/armv7e-m/libgcc.a(_arm_addsubsf3.o)
 .ARM.attributes
                0x000000000000099f       0x1e /usr/local/Cellar/arm-none-eabi-gcc/4.9-2015-q2-update/bin/../lib/gcc/arm-none-eabi/4.9.3/armv7e-m/libgcc.a(_arm_muldivsf3.o)
 .ARM.attributes
                0x00000000000009bd       0x1e /usr/local/Cellar/arm-none-eabi-gcc/4.9-2015-q2-update/bin/../lib/gcc/arm-none-eabi/4.9.3/armv7e-m/libgcc.a(_arm_fixsfsi.o)
 .ARM.attributes
                0x00000000000009db       0x2e /usr/local/Cellar/arm-none-eabi-gcc/4.9-2015-q2-update/bin/../lib/gcc/arm-none-eabi/4.9.3/../../../../arm-none-eabi/lib/armv7e-m/libm.a(lib_a-s_floor.o)
 .ARM.attributes
                0x0000000000000a09       0x2e /usr/local/Cellar/arm-none-eabi-gcc/4.9-2015-q2-update/bin/../lib/gcc/arm-none-eabi/4.9.3/../../../../arm-none-eabi/lib/armv7e-m/libm.a(lib_a-s_round.o)
 .ARM.attributes
                0x0000000000000a37       0x2e /usr/local/Cellar/arm-none-eabi-gcc/4.9-2015-q2-update/bin/../lib/gcc/arm-none-eabi/4.9.3/../../../../arm-none-eabi/lib/armv7e-m/libc_nano.a(lib_a-abort.o)
 .ARM.attributes
                0x0000000000000a65       0x2e /usr/local/Cellar/arm-none-eabi-gcc/4.9-2015-q2-update/bin/../lib/gcc/arm-none-eabi/4.9.3/../../../../arm-none-eabi/lib/armv7e-m/libc_nano.a(lib_a-cxa_atexit.o)
 .ARM.attributes
                0x0000000000000a93       0x2e /usr/local/Cellar/arm-none-eabi-gcc/4.9-2015-q2-update/bin/../lib/gcc/arm-none-eabi/4.9.3/../../../../arm-none-eabi/lib/armv7e-m/libc_nano.a(lib_a-errno.o)
 .ARM.attributes
                0x0000000000000ac1       0x2e /usr/local/Cellar/arm-none-eabi-gcc/4.9-2015-q2-update/bin/../lib/gcc/arm-none-eabi/4.9.3/../../../../arm-none-eabi/lib/armv7e-m/libc_nano.a(lib_a-fflush.o)
 .ARM.attributes
                0x0000000000000aef       0x2e /usr/local/Cellar/arm-none-eabi-gcc/4.9-2015-q2-update/bin/../lib/gcc/arm-none-eabi/4.9.3/../../../../arm-none-eabi/lib/armv7e-m/libc_nano.a(lib_a-findfp.o)
 .ARM.attributes
                0x0000000000000b1d       0x2e /usr/local/Cellar/arm-none-eabi-gcc/4.9-2015-q2-update/bin/../lib/gcc/arm-none-eabi/4.9.3/../../../../arm-none-eabi/lib/armv7e-m/libc_nano.a(lib_a-fprintf.o)
 .ARM.attributes
                0x0000000000000b4b       0x2e /usr/local/Cellar/arm-none-eabi-gcc/4.9-2015-q2-update/bin/../lib/gcc/arm-none-eabi/4.9.3/../../../../arm-none-eabi/lib/armv7e-m/libc_nano.a(lib_a-fwalk.o)
 .ARM.attributes
                0x0000000000000b79       0x2e /usr/local/Cellar/arm-none-eabi-gcc/4.9-2015-q2-update/bin/../lib/gcc/arm-none-eabi/4.9.3/../../../../arm-none-eabi/lib/armv7e-m/libc_nano.a(lib_a-impure.o)
 .ARM.attributes
                0x0000000000000ba7       0x2e /usr/local/Cellar/arm-none-eabi-gcc/4.9-2015-q2-update/bin/../lib/gcc/arm-none-eabi/4.9.3/../../../../arm-none-eabi/lib/armv7e-m/libc_nano.a(lib_a-init.o)
 .ARM.attributes
                0x0000000000000bd5       0x2e /usr/local/Cellar/arm-none-eabi-gcc/4.9-2015-q2-update/bin/../lib/gcc/arm-none-eabi/4.9.3/../../../../arm-none-eabi/lib/armv7e-m/libc_nano.a(lib_a-malloc.o)
 .ARM.attributes
                0x0000000000000c03       0x2e /usr/local/Cellar/arm-none-eabi-gcc/4.9-2015-q2-update/bin/../lib/gcc/arm-none-eabi/4.9.3/../../../../arm-none-eabi/lib/armv7e-m/libc_nano.a(lib_a-memset.o)
 .ARM.attributes
                0x0000000000000c31       0x2e /usr/local/Cellar/arm-none-eabi-gcc/4.9-2015-q2-update/bin/../lib/gcc/arm-none-eabi/4.9.3/../../../../arm-none-eabi/lib/armv7e-m/libc_nano.a(lib_a-nano-vfprintf.o)
 .ARM.attributes
                0x0000000000000c5f       0x2e /usr/local/Cellar/arm-none-eabi-gcc/4.9-2015-q2-update/bin/../lib/gcc/arm-none-eabi/4.9.3/../../../../arm-none-eabi/lib/armv7e-m/libc_nano.a(lib_a-nano-vfprintf_i.o)
 .ARM.attributes
                0x0000000000000c8d       0x2e /usr/local/Cellar/arm-none-eabi-gcc/4.9-2015-q2-update/bin/../lib/gcc/arm-none-eabi/4.9.3/../../../../arm-none-eabi/lib/armv7e-m/libc_nano.a(lib_a-printf.o)
 .ARM.attributes
                0x0000000000000cbb       0x2e /usr/local/Cellar/arm-none-eabi-gcc/4.9-2015-q2-update/bin/../lib/gcc/arm-none-eabi/4.9.3/../../../../arm-none-eabi/lib/armv7e-m/libc_nano.a(lib_a-puts.o)
 .ARM.attributes
                0x0000000000000ce9       0x2e /usr/local/Cellar/arm-none-eabi-gcc/4.9-2015-q2-update/bin/../lib/gcc/arm-none-eabi/4.9.3/../../../../arm-none-eabi/lib/armv7e-m/libc_nano.a(lib_a-signal.o)
 .ARM.attributes
                0x0000000000000d17       0x2e /usr/local/Cellar/arm-none-eabi-gcc/4.9-2015-q2-update/bin/../lib/gcc/arm-none-eabi/4.9.3/../../../../arm-none-eabi/lib/armv7e-m/libc_nano.a(lib_a-signalr.o)
 .ARM.attributes
                0x0000000000000d45       0x2e /usr/local/Cellar/arm-none-eabi-gcc/4.9-2015-q2-update/bin/../lib/gcc/arm-none-eabi/4.9.3/../../../../arm-none-eabi/lib/armv7e-m/libc_nano.a(lib_a-stdio.o)
 .ARM.attributes
                0x0000000000000d73       0x1c /usr/local/Cellar/arm-none-eabi-gcc/4.9-2015-q2-update/bin/../lib/gcc/arm-none-eabi/4.9.3/../../../../arm-none-eabi/lib/armv7e-m/libc_nano.a(lib_a-strcmp.o)
 .ARM.attributes
                0x0000000000000d8f       0x2e /usr/local/Cellar/arm-none-eabi-gcc/4.9-2015-q2-update/bin/../lib/gcc/arm-none-eabi/4.9.3/../../../../arm-none-eabi/lib/armv7e-m/libc_nano.a(lib_a-wbuf.o)
 .ARM.attributes
                0x0000000000000dbd       0x2e /usr/local/Cellar/arm-none-eabi-gcc/4.9-2015-q2-update/bin/../lib/gcc/arm-none-eabi/4.9.3/../../../../arm-none-eabi/lib/armv7e-m/libc_nano.a(lib_a-writer.o)
 .ARM.attributes
                0x0000000000000deb       0x2e /usr/local/Cellar/arm-none-eabi-gcc/4.9-2015-q2-update/bin/../lib/gcc/arm-none-eabi/4.9.3/../../../../arm-none-eabi/lib/armv7e-m/libc_nano.a(lib_a-wsetup.o)
 .ARM.attributes
                0x0000000000000e19       0x2e /usr/local/Cellar/arm-none-eabi-gcc/4.9-2015-q2-update/bin/../lib/gcc/arm-none-eabi/4.9.3/../../../../arm-none-eabi/lib/armv7e-m/libc_nano.a(lib_a-closer.o)
 .ARM.attributes
                0x0000000000000e47       0x2e /usr/local/Cellar/arm-none-eabi-gcc/4.9-2015-q2-update/bin/../lib/gcc/arm-none-eabi/4.9.3/../../../../arm-none-eabi/lib/armv7e-m/libc_nano.a(lib_a-lseekr.o)
 .ARM.attributes
                0x0000000000000e75       0x2e /usr/local/Cellar/arm-none-eabi-gcc/4.9-2015-q2-update/bin/../lib/gcc/arm-none-eabi/4.9.3/../../../../arm-none-eabi/lib/armv7e-m/libc_nano.a(lib_a-makebuf.o)
 .ARM.attributes
                0x0000000000000ea3       0x2e /usr/local/Cellar/arm-none-eabi-gcc/4.9-2015-q2-update/bin/../lib/gcc/arm-none-eabi/4.9.3/../../../../arm-none-eabi/lib/armv7e-m/libc_nano.a(lib_a-memchr.o)
 .ARM.attributes
                0x0000000000000ed1       0x2e /usr/local/Cellar/arm-none-eabi-gcc/4.9-2015-q2-update/bin/../lib/gcc/arm-none-eabi/4.9.3/../../../../arm-none-eabi/lib/armv7e-m/libc_nano.a(lib_a-readr.o)
 .ARM.attributes
                0x0000000000000eff       0x2e /usr/local/Cellar/arm-none-eabi-gcc/4.9-2015-q2-update/bin/../lib/gcc/arm-none-eabi/4.9.3/../../../../arm-none-eabi/lib/armv7e-m/libc_nano.a(lib_a-reent.o)
 .ARM.attributes
                0x0000000000000f2d       0x2e /usr/local/Cellar/arm-none-eabi-gcc/4.9-2015-q2-update/bin/../lib/gcc/arm-none-eabi/4.9.3/../../../../arm-none-eabi/lib/armv7e-m/libc_nano.a(lib_a-fstatr.o)
 .ARM.attributes
                0x0000000000000f5b       0x2e /usr/local/Cellar/arm-none-eabi-gcc/4.9-2015-q2-update/bin/../lib/gcc/arm-none-eabi/4.9.3/../../../../arm-none-eabi/lib/armv7e-m/libc_nano.a(lib_a-isattyr.o)
 .ARM.attributes
                0x0000000000000f89       0x1e /usr/local/Cellar/arm-none-eabi-gcc/4.9-2015-q2-update/bin/../lib/gcc/arm-none-eabi/4.9.3/armv7e-m/libgcc.a(_arm_cmpdf2.o)
 .ARM.attributes
                0x0000000000000fa7       0x33 ym/core-util/source/core-util.a(sbrk.cpp.o)
 .ARM.attributes
                0x0000000000000fda       0x33 ym/ualloc/source/ualloc.a(malloc.c.o)
 .ARM.attributes
                0x000000000000100d       0x33 ym/cmsis-core/source/cmsis-core.a(cmsis_nvic.c.o)
 .ARM.attributes
                0x0000000000001040       0x2e /usr/local/Cellar/arm-none-eabi-gcc/4.9-2015-q2-update/bin/../lib/gcc/arm-none-eabi/4.9.3/armv7e-m/crtend.o
 .ARM.attributes
                0x000000000000106e       0x1e /usr/local/Cellar/arm-none-eabi-gcc/4.9-2015-q2-update/bin/../lib/gcc/arm-none-eabi/4.9.3/armv7e-m/crtn.o

.comment        0x0000000000000000       0x70
 .comment       0x0000000000000000       0x70 test/CMakeFiles/ds1820-mbedos-test-sense.dir/Users/andrewbrannan/converge/code/DS1820-mbedOS/test/sense.cpp.o
                                         0x71 (size before relaxing)
 .comment       0x0000000000000000       0x71 ym/mbed-drivers/source/mbed-drivers.a(retarget.cpp.o)
 .comment       0x0000000000000000       0x71 ym/mbed-drivers/source/mbed-drivers.a(exit.c.o)
 .comment       0x0000000000000000       0x71 ym/mbed-drivers/source/mbed-drivers.a(board.c.o)
 .comment       0x0000000000000000       0x71 ym/mbed-drivers/source/mbed-drivers.a(wait_api.c.o)
 .comment       0x0000000000000000       0x71 ym/mbed-drivers/source/mbed-drivers.a(error.c.o)
 .comment       0x0000000000000000       0x71 ym/mbed-drivers/source/mbed-drivers.a(gpio.c.o)
 .comment       0x0000000000000000       0x71 source/ds1820-mbedos.a(DS1820.cpp.o)
 .comment       0x0000000000000000       0x71 source/ds1820-mbedos.a(LinkedList.cpp.o)
 .comment       0x0000000000000000       0x71 ym/minar/source/minar.a(minar.cpp.o)
 .comment       0x0000000000000000       0x71 ym/core-util/source/core-util.a(ExtendablePoolAllocator.cpp.o)
 .comment       0x0000000000000000       0x71 ym/core-util/source/core-util.a(PoolAllocator.cpp.o)
 .comment       0x0000000000000000       0x71 ym/core-util/source/core-util.a(core-util_mbed_os.c.o)
 .comment       0x0000000000000000       0x71 ym/mbed-hal-ksdk-mcu/source/mbed-hal-ksdk-mcu.a(serial_api.c.o)
 .comment       0x0000000000000000       0x71 ym/mbed-hal-ksdk-mcu/source/mbed-hal-ksdk-mcu.a(fsl_clock_manager.c.o)
 .comment       0x0000000000000000       0x71 ym/mbed-hal-ksdk-mcu/source/mbed-hal-ksdk-mcu.a(gpio_api.c.o)
 .comment       0x0000000000000000       0x71 ym/mbed-hal-ksdk-mcu/source/mbed-hal-ksdk-mcu.a(us_ticker.c.o)
 .comment       0x0000000000000000       0x71 ym/mbed-hal-ksdk-mcu/source/mbed-hal-ksdk-mcu.a(fsl_uart_hal.c.o)
 .comment       0x0000000000000000       0x71 ym/mbed-hal-ksdk-mcu/source/mbed-hal-ksdk-mcu.a(fsl_sim_hal.c.o)
 .comment       0x0000000000000000       0x71 ym/mbed-hal-ksdk-mcu/source/mbed-hal-ksdk-mcu.a(fsl_gpio_hal.c.o)
 .comment       0x0000000000000000       0x71 ym/mbed-hal-ksdk-mcu/source/mbed-hal-ksdk-mcu.a(pinmap.c.o)
 .comment       0x0000000000000000       0x71 ym/mbed-hal-ksdk-mcu/source/mbed-hal-ksdk-mcu.a(fsl_mcg_hal.c.o)
 .comment       0x0000000000000000       0x71 ym/minar-platform-mbed/source/minar-platform-mbed.a(mbed_platform.cpp.o)
 .comment       0x0000000000000000       0x71 ym/mbed-hal-k64f/source/mbed-hal-k64f.a(fsl_clock_K64F12.c.o)
 .comment       0x0000000000000000       0x71 ym/mbed-hal-k64f/source/mbed-hal-k64f.a(fsl_sim_hal_K64F12.c.o)
 .comment       0x0000000000000000       0x71 ym/mbed-hal-frdm-k64f/source/mbed-hal-frdm-k64f.a(init_api.c.o)
 .comment       0x0000000000000000       0x71 ym/mbed-hal-frdm-k64f/source/mbed-hal-frdm-k64f.a(PeripheralPins.c.o)
 .comment       0x0000000000000000       0x71 ym/mbed-drivers/source/mbed-drivers.a(pinmap_common.c.o)
 .comment       0x0000000000000000       0x71 ym/mbed-drivers/source/mbed-drivers.a(us_ticker_api.c.o)
 .comment       0x0000000000000000       0x71 ym/mbed-drivers/source/mbed-drivers.a(ticker_api.c.o)
 .comment       0x0000000000000000       0x71 ym/mbed-hal-ksdk-mcu/source/mbed-hal-ksdk-mcu.a(sleep.c.o)
 .comment       0x0000000000000000       0x71 ym/mbed-hal-ksdk-mcu/source/mbed-hal-ksdk-mcu.a(fsl_smc_hal.c.o)
 .comment       0x0000000000000000       0x71 ym/mbed-hal-ksdk-mcu/source/mbed-hal-ksdk-mcu.a(lp_ticker.c.o)
 .comment       0x0000000000000000       0x71 ym/mbed-hal-ksdk-mcu/source/mbed-hal-ksdk-mcu.a(fsl_rtc_hal.c.o)
 .comment       0x0000000000000000       0x71 ym/ualloc/source/ualloc.a(ualloc.c.o)
 .comment       0x0000000000000000       0x71 ym/dlmalloc/source/dlmalloc.a(dlmalloc.c.o)
 .comment       0x0000000000000000       0x71 ym/cmsis-core-k64f/source/cmsis-core-k64f.a(system_MK64F12.c.o)
 .comment       0x0000000000000000       0x71 ym/uvisor-lib/source/uvisor-lib.a(interrupts.cpp.o)
 .comment       0x0000000000000000       0x71 ym/core-util/source/core-util.a(sbrk.cpp.o)
 .comment       0x0000000000000000       0x71 ym/ualloc/source/ualloc.a(malloc.c.o)
 .comment       0x0000000000000000       0x71 ym/cmsis-core/source/cmsis-core.a(cmsis_nvic.c.o)

.debug_info     0x0000000000000000    0x2e2cb
 .debug_info    0x0000000000000000     0x216d test/CMakeFiles/ds1820-mbedos-test-sense.dir/Users/andrewbrannan/converge/code/DS1820-mbedOS/test/sense.cpp.o
 .debug_info    0x000000000000216d     0x407e ym/mbed-drivers/source/mbed-drivers.a(retarget.cpp.o)
 .debug_info    0x00000000000061eb      0x91a ym/mbed-drivers/source/mbed-drivers.a(exit.c.o)
 .debug_info    0x0000000000006b05      0x80f ym/mbed-drivers/source/mbed-drivers.a(board.c.o)
 .debug_info    0x0000000000007314      0x181 ym/mbed-drivers/source/mbed-drivers.a(wait_api.c.o)
 .debug_info    0x0000000000007495      0x975 ym/mbed-drivers/source/mbed-drivers.a(error.c.o)
 .debug_info    0x0000000000007e0a      0xc68 ym/mbed-drivers/source/mbed-drivers.a(gpio.c.o)
 .debug_info    0x0000000000008a72     0x3720 source/ds1820-mbedos.a(DS1820.cpp.o)
 .debug_info    0x000000000000c192     0x17e4 source/ds1820-mbedos.a(LinkedList.cpp.o)
 .debug_info    0x000000000000d976     0x4211 ym/minar/source/minar.a(minar.cpp.o)
 .debug_info    0x0000000000011b87      0xb70 ym/core-util/source/core-util.a(ExtendablePoolAllocator.cpp.o)
 .debug_info    0x00000000000126f7      0x8ca ym/core-util/source/core-util.a(PoolAllocator.cpp.o)
 .debug_info    0x0000000000012fc1      0xac2 ym/core-util/source/core-util.a(core-util_mbed_os.c.o)
 .debug_info    0x0000000000013a83     0x31fb ym/mbed-hal-ksdk-mcu/source/mbed-hal-ksdk-mcu.a(serial_api.c.o)
 .debug_info    0x0000000000016c7e      0x7cd ym/mbed-hal-ksdk-mcu/source/mbed-hal-ksdk-mcu.a(fsl_clock_manager.c.o)
 .debug_info    0x000000000001744b      0xb05 ym/mbed-hal-ksdk-mcu/source/mbed-hal-ksdk-mcu.a(gpio_api.c.o)
 .debug_info    0x0000000000017f50      0xcb2 ym/mbed-hal-ksdk-mcu/source/mbed-hal-ksdk-mcu.a(us_ticker.c.o)
 .debug_info    0x0000000000018c02     0x20d5 ym/mbed-hal-ksdk-mcu/source/mbed-hal-ksdk-mcu.a(fsl_uart_hal.c.o)
 .debug_info    0x000000000001acd7     0x220d ym/mbed-hal-ksdk-mcu/source/mbed-hal-ksdk-mcu.a(fsl_sim_hal.c.o)
 .debug_info    0x000000000001cee4      0x324 ym/mbed-hal-ksdk-mcu/source/mbed-hal-ksdk-mcu.a(fsl_gpio_hal.c.o)
 .debug_info    0x000000000001d208      0xae3 ym/mbed-hal-ksdk-mcu/source/mbed-hal-ksdk-mcu.a(pinmap.c.o)
 .debug_info    0x000000000001dceb      0xfff ym/mbed-hal-ksdk-mcu/source/mbed-hal-ksdk-mcu.a(fsl_mcg_hal.c.o)
 .debug_info    0x000000000001ecea      0x559 ym/minar-platform-mbed/source/minar-platform-mbed.a(mbed_platform.cpp.o)
 .debug_info    0x000000000001f243       0xdd ym/mbed-hal-k64f/source/mbed-hal-k64f.a(startup_MK64F12.S.obj)
 .debug_info    0x000000000001f320      0xe08 ym/mbed-hal-k64f/source/mbed-hal-k64f.a(fsl_clock_K64F12.c.o)
 .debug_info    0x0000000000020128     0x2859 ym/mbed-hal-k64f/source/mbed-hal-k64f.a(fsl_sim_hal_K64F12.c.o)
 .debug_info    0x0000000000022981       0x3a ym/mbed-hal-frdm-k64f/source/mbed-hal-frdm-k64f.a(init_api.c.o)
 .debug_info    0x00000000000229bb      0xa0e ym/mbed-hal-frdm-k64f/source/mbed-hal-frdm-k64f.a(PeripheralPins.c.o)
 .debug_info    0x00000000000233c9      0x958 ym/mbed-drivers/source/mbed-drivers.a(pinmap_common.c.o)
 .debug_info    0x0000000000023d21      0x2a3 ym/mbed-drivers/source/mbed-drivers.a(us_ticker_api.c.o)
 .debug_info    0x0000000000023fc4      0x3d6 ym/mbed-drivers/source/mbed-drivers.a(ticker_api.c.o)
 .debug_info    0x000000000002439a      0x494 ym/mbed-hal-ksdk-mcu/source/mbed-hal-ksdk-mcu.a(sleep.c.o)
 .debug_info    0x000000000002482e     0x1008 ym/mbed-hal-ksdk-mcu/source/mbed-hal-ksdk-mcu.a(fsl_smc_hal.c.o)
 .debug_info    0x0000000000025836     0x146a ym/mbed-hal-ksdk-mcu/source/mbed-hal-ksdk-mcu.a(lp_ticker.c.o)
 .debug_info    0x0000000000026ca0      0xccc ym/mbed-hal-ksdk-mcu/source/mbed-hal-ksdk-mcu.a(fsl_rtc_hal.c.o)
 .debug_info    0x000000000002796c      0x3c5 ym/ualloc/source/ualloc.a(ualloc.c.o)
 .debug_info    0x0000000000027d31     0x393c ym/dlmalloc/source/dlmalloc.a(dlmalloc.c.o)
 .debug_info    0x000000000002b66d      0x987 ym/cmsis-core-k64f/source/cmsis-core-k64f.a(system_MK64F12.c.o)
 .debug_info    0x000000000002bff4      0xbf6 ym/uvisor-lib/source/uvisor-lib.a(interrupts.cpp.o)
 .debug_info    0x000000000002cbea      0x671 ym/core-util/source/core-util.a(sbrk.cpp.o)
 .debug_info    0x000000000002d25b      0xb0a ym/ualloc/source/ualloc.a(malloc.c.o)
 .debug_info    0x000000000002dd65      0x566 ym/cmsis-core/source/cmsis-core.a(cmsis_nvic.c.o)

.debug_abbrev   0x0000000000000000     0x773d
 .debug_abbrev  0x0000000000000000      0x50b test/CMakeFiles/ds1820-mbedos-test-sense.dir/Users/andrewbrannan/converge/code/DS1820-mbedOS/test/sense.cpp.o
 .debug_abbrev  0x000000000000050b      0x967 ym/mbed-drivers/source/mbed-drivers.a(retarget.cpp.o)
 .debug_abbrev  0x0000000000000e72      0x1d8 ym/mbed-drivers/source/mbed-drivers.a(exit.c.o)
 .debug_abbrev  0x000000000000104a      0x19d ym/mbed-drivers/source/mbed-drivers.a(board.c.o)
 .debug_abbrev  0x00000000000011e7       0xe7 ym/mbed-drivers/source/mbed-drivers.a(wait_api.c.o)
 .debug_abbrev  0x00000000000012ce      0x212 ym/mbed-drivers/source/mbed-drivers.a(error.c.o)
 .debug_abbrev  0x00000000000014e0      0x224 ym/mbed-drivers/source/mbed-drivers.a(gpio.c.o)
 .debug_abbrev  0x0000000000001704      0x7f6 source/ds1820-mbedos.a(DS1820.cpp.o)
 .debug_abbrev  0x0000000000001efa      0x4bc source/ds1820-mbedos.a(LinkedList.cpp.o)
 .debug_abbrev  0x00000000000023b6      0x963 ym/minar/source/minar.a(minar.cpp.o)
 .debug_abbrev  0x0000000000002d19      0x3c4 ym/core-util/source/core-util.a(ExtendablePoolAllocator.cpp.o)
 .debug_abbrev  0x00000000000030dd      0x345 ym/core-util/source/core-util.a(PoolAllocator.cpp.o)
 .debug_abbrev  0x0000000000003422      0x269 ym/core-util/source/core-util.a(core-util_mbed_os.c.o)
 .debug_abbrev  0x000000000000368b      0x527 ym/mbed-hal-ksdk-mcu/source/mbed-hal-ksdk-mcu.a(serial_api.c.o)
 .debug_abbrev  0x0000000000003bb2      0x1ca ym/mbed-hal-ksdk-mcu/source/mbed-hal-ksdk-mcu.a(fsl_clock_manager.c.o)
 .debug_abbrev  0x0000000000003d7c      0x252 ym/mbed-hal-ksdk-mcu/source/mbed-hal-ksdk-mcu.a(gpio_api.c.o)
 .debug_abbrev  0x0000000000003fce      0x2b8 ym/mbed-hal-ksdk-mcu/source/mbed-hal-ksdk-mcu.a(us_ticker.c.o)
 .debug_abbrev  0x0000000000004286      0x345 ym/mbed-hal-ksdk-mcu/source/mbed-hal-ksdk-mcu.a(fsl_uart_hal.c.o)
 .debug_abbrev  0x00000000000045cb      0x29e ym/mbed-hal-ksdk-mcu/source/mbed-hal-ksdk-mcu.a(fsl_sim_hal.c.o)
 .debug_abbrev  0x0000000000004869      0x177 ym/mbed-hal-ksdk-mcu/source/mbed-hal-ksdk-mcu.a(fsl_gpio_hal.c.o)
 .debug_abbrev  0x00000000000049e0      0x260 ym/mbed-hal-ksdk-mcu/source/mbed-hal-ksdk-mcu.a(pinmap.c.o)
 .debug_abbrev  0x0000000000004c40      0x324 ym/mbed-hal-ksdk-mcu/source/mbed-hal-ksdk-mcu.a(fsl_mcg_hal.c.o)
 .debug_abbrev  0x0000000000004f64      0x30e ym/minar-platform-mbed/source/minar-platform-mbed.a(mbed_platform.cpp.o)
 .debug_abbrev  0x0000000000005272       0x12 ym/mbed-hal-k64f/source/mbed-hal-k64f.a(startup_MK64F12.S.obj)
 .debug_abbrev  0x0000000000005284      0x1aa ym/mbed-hal-k64f/source/mbed-hal-k64f.a(fsl_clock_K64F12.c.o)
 .debug_abbrev  0x000000000000542e      0x260 ym/mbed-hal-k64f/source/mbed-hal-k64f.a(fsl_sim_hal_K64F12.c.o)
 .debug_abbrev  0x000000000000568e       0x2c ym/mbed-hal-frdm-k64f/source/mbed-hal-frdm-k64f.a(init_api.c.o)
 .debug_abbrev  0x00000000000056ba       0xbd ym/mbed-hal-frdm-k64f/source/mbed-hal-frdm-k64f.a(PeripheralPins.c.o)
 .debug_abbrev  0x0000000000005777      0x15e ym/mbed-drivers/source/mbed-drivers.a(pinmap_common.c.o)
 .debug_abbrev  0x00000000000058d5      0x129 ym/mbed-drivers/source/mbed-drivers.a(us_ticker_api.c.o)
 .debug_abbrev  0x00000000000059fe      0x1a0 ym/mbed-drivers/source/mbed-drivers.a(ticker_api.c.o)
 .debug_abbrev  0x0000000000005b9e      0x1fa ym/mbed-hal-ksdk-mcu/source/mbed-hal-ksdk-mcu.a(sleep.c.o)
 .debug_abbrev  0x0000000000005d98      0x2e0 ym/mbed-hal-ksdk-mcu/source/mbed-hal-ksdk-mcu.a(fsl_smc_hal.c.o)
 .debug_abbrev  0x0000000000006078      0x42f ym/mbed-hal-ksdk-mcu/source/mbed-hal-ksdk-mcu.a(lp_ticker.c.o)
 .debug_abbrev  0x00000000000064a7      0x34e ym/mbed-hal-ksdk-mcu/source/mbed-hal-ksdk-mcu.a(fsl_rtc_hal.c.o)
 .debug_abbrev  0x00000000000067f5      0x1d7 ym/ualloc/source/ualloc.a(ualloc.c.o)
 .debug_abbrev  0x00000000000069cc      0x368 ym/dlmalloc/source/dlmalloc.a(dlmalloc.c.o)
 .debug_abbrev  0x0000000000006d34      0x13e ym/cmsis-core-k64f/source/cmsis-core-k64f.a(system_MK64F12.c.o)
 .debug_abbrev  0x0000000000006e72      0x247 ym/uvisor-lib/source/uvisor-lib.a(interrupts.cpp.o)
 .debug_abbrev  0x00000000000070b9      0x2f1 ym/core-util/source/core-util.a(sbrk.cpp.o)
 .debug_abbrev  0x00000000000073aa      0x23d ym/ualloc/source/ualloc.a(malloc.c.o)
 .debug_abbrev  0x00000000000075e7      0x156 ym/cmsis-core/source/cmsis-core.a(cmsis_nvic.c.o)

.debug_loc      0x0000000000000000    0x237bc
 .debug_loc     0x0000000000000000       0x3e test/CMakeFiles/ds1820-mbedos-test-sense.dir/Users/andrewbrannan/converge/code/DS1820-mbedOS/test/sense.cpp.o
 .debug_loc     0x000000000000003e      0xda4 ym/mbed-drivers/source/mbed-drivers.a(retarget.cpp.o)
 .debug_loc     0x0000000000000de2       0x1e ym/mbed-drivers/source/mbed-drivers.a(exit.c.o)
 .debug_loc     0x0000000000000e00       0xc4 ym/mbed-drivers/source/mbed-drivers.a(board.c.o)
 .debug_loc     0x0000000000000ec4       0x62 ym/mbed-drivers/source/mbed-drivers.a(wait_api.c.o)
 .debug_loc     0x0000000000000f26      0x747 ym/mbed-drivers/source/mbed-drivers.a(gpio.c.o)
 .debug_loc     0x000000000000166d     0x11e3 source/ds1820-mbedos.a(DS1820.cpp.o)
 .debug_loc     0x0000000000002850      0x22e source/ds1820-mbedos.a(LinkedList.cpp.o)
 .debug_loc     0x0000000000002a7e     0x1380 ym/minar/source/minar.a(minar.cpp.o)
 .debug_loc     0x0000000000003dfe      0x47a ym/core-util/source/core-util.a(ExtendablePoolAllocator.cpp.o)
 .debug_loc     0x0000000000004278      0x4de ym/core-util/source/core-util.a(PoolAllocator.cpp.o)
 .debug_loc     0x0000000000004756      0x109 ym/core-util/source/core-util.a(core-util_mbed_os.c.o)
 .debug_loc     0x000000000000485f     0x1612 ym/mbed-hal-ksdk-mcu/source/mbed-hal-ksdk-mcu.a(serial_api.c.o)
 .debug_loc     0x0000000000005e71      0x3a0 ym/mbed-hal-ksdk-mcu/source/mbed-hal-ksdk-mcu.a(fsl_clock_manager.c.o)
 .debug_loc     0x0000000000006211      0x2e9 ym/mbed-hal-ksdk-mcu/source/mbed-hal-ksdk-mcu.a(gpio_api.c.o)
 .debug_loc     0x00000000000064fa      0x1df ym/mbed-hal-ksdk-mcu/source/mbed-hal-ksdk-mcu.a(us_ticker.c.o)
 .debug_loc     0x00000000000066d9     0x1ad0 ym/mbed-hal-ksdk-mcu/source/mbed-hal-ksdk-mcu.a(fsl_uart_hal.c.o)
 .debug_loc     0x00000000000081a9     0x2510 ym/mbed-hal-ksdk-mcu/source/mbed-hal-ksdk-mcu.a(fsl_sim_hal.c.o)
 .debug_loc     0x000000000000a6b9      0x15b ym/mbed-hal-ksdk-mcu/source/mbed-hal-ksdk-mcu.a(fsl_gpio_hal.c.o)
 .debug_loc     0x000000000000a814      0x414 ym/mbed-hal-ksdk-mcu/source/mbed-hal-ksdk-mcu.a(pinmap.c.o)
 .debug_loc     0x000000000000ac28      0x58f ym/mbed-hal-ksdk-mcu/source/mbed-hal-ksdk-mcu.a(fsl_mcg_hal.c.o)
 .debug_loc     0x000000000000b1b7      0x28e ym/minar-platform-mbed/source/minar-platform-mbed.a(mbed_platform.cpp.o)
 .debug_loc     0x000000000000b445      0x3dc ym/mbed-hal-k64f/source/mbed-hal-k64f.a(fsl_clock_K64F12.c.o)
 .debug_loc     0x000000000000b821     0x2b56 ym/mbed-hal-k64f/source/mbed-hal-k64f.a(fsl_sim_hal_K64F12.c.o)
 .debug_loc     0x000000000000e377      0x2a7 ym/mbed-drivers/source/mbed-drivers.a(pinmap_common.c.o)
 .debug_loc     0x000000000000e61e      0x29b ym/mbed-drivers/source/mbed-drivers.a(ticker_api.c.o)
 .debug_loc     0x000000000000e8b9       0x44 ym/mbed-hal-ksdk-mcu/source/mbed-hal-ksdk-mcu.a(sleep.c.o)
 .debug_loc     0x000000000000e8fd      0x89d ym/mbed-hal-ksdk-mcu/source/mbed-hal-ksdk-mcu.a(fsl_smc_hal.c.o)
 .debug_loc     0x000000000000f19a      0x3bd ym/mbed-hal-ksdk-mcu/source/mbed-hal-ksdk-mcu.a(lp_ticker.c.o)
 .debug_loc     0x000000000000f557      0x5f1 ym/mbed-hal-ksdk-mcu/source/mbed-hal-ksdk-mcu.a(fsl_rtc_hal.c.o)
 .debug_loc     0x000000000000fb48      0x1e8 ym/ualloc/source/ualloc.a(ualloc.c.o)
 .debug_loc     0x000000000000fd30    0x131e6 ym/dlmalloc/source/dlmalloc.a(dlmalloc.c.o)
 .debug_loc     0x0000000000022f16       0x9b ym/cmsis-core-k64f/source/cmsis-core-k64f.a(system_MK64F12.c.o)
 .debug_loc     0x0000000000022fb1      0x3ad ym/uvisor-lib/source/uvisor-lib.a(interrupts.cpp.o)
 .debug_loc     0x000000000002335e      0x251 ym/core-util/source/core-util.a(sbrk.cpp.o)
 .debug_loc     0x00000000000235af      0x1ad ym/ualloc/source/ualloc.a(malloc.c.o)
 .debug_loc     0x000000000002375c       0x60 ym/cmsis-core/source/cmsis-core.a(cmsis_nvic.c.o)

.debug_aranges  0x0000000000000000     0x13c8
 .debug_aranges
                0x0000000000000000       0x20 test/CMakeFiles/ds1820-mbedos-test-sense.dir/Users/andrewbrannan/converge/code/DS1820-mbedOS/test/sense.cpp.o
 .debug_aranges
                0x0000000000000020      0x180 ym/mbed-drivers/source/mbed-drivers.a(retarget.cpp.o)
 .debug_aranges
                0x00000000000001a0       0x20 ym/mbed-drivers/source/mbed-drivers.a(exit.c.o)
 .debug_aranges
                0x00000000000001c0       0x28 ym/mbed-drivers/source/mbed-drivers.a(board.c.o)
 .debug_aranges
                0x00000000000001e8       0x30 ym/mbed-drivers/source/mbed-drivers.a(wait_api.c.o)
 .debug_aranges
                0x0000000000000218       0x20 ym/mbed-drivers/source/mbed-drivers.a(error.c.o)
 .debug_aranges
                0x0000000000000238       0x50 ym/mbed-drivers/source/mbed-drivers.a(gpio.c.o)
 .debug_aranges
                0x0000000000000288       0xd8 source/ds1820-mbedos.a(DS1820.cpp.o)
 .debug_aranges
                0x0000000000000360       0x50 source/ds1820-mbedos.a(LinkedList.cpp.o)
 .debug_aranges
                0x00000000000003b0      0x160 ym/minar/source/minar.a(minar.cpp.o)
 .debug_aranges
                0x0000000000000510       0x58 ym/core-util/source/core-util.a(ExtendablePoolAllocator.cpp.o)
 .debug_aranges
                0x0000000000000568       0x60 ym/core-util/source/core-util.a(PoolAllocator.cpp.o)
 .debug_aranges
                0x00000000000005c8       0x28 ym/core-util/source/core-util.a(core-util_mbed_os.c.o)
 .debug_aranges
                0x00000000000005f0      0x180 ym/mbed-hal-ksdk-mcu/source/mbed-hal-ksdk-mcu.a(serial_api.c.o)
 .debug_aranges
                0x0000000000000770       0x48 ym/mbed-hal-ksdk-mcu/source/mbed-hal-ksdk-mcu.a(fsl_clock_manager.c.o)
 .debug_aranges
                0x00000000000007b8       0x38 ym/mbed-hal-ksdk-mcu/source/mbed-hal-ksdk-mcu.a(gpio_api.c.o)
 .debug_aranges
                0x00000000000007f0       0x50 ym/mbed-hal-ksdk-mcu/source/mbed-hal-ksdk-mcu.a(us_ticker.c.o)
 .debug_aranges
                0x0000000000000840       0xe8 ym/mbed-hal-ksdk-mcu/source/mbed-hal-ksdk-mcu.a(fsl_uart_hal.c.o)
 .debug_aranges
                0x0000000000000928       0xd0 ym/mbed-hal-ksdk-mcu/source/mbed-hal-ksdk-mcu.a(fsl_sim_hal.c.o)
 .debug_aranges
                0x00000000000009f8       0x28 ym/mbed-hal-ksdk-mcu/source/mbed-hal-ksdk-mcu.a(fsl_gpio_hal.c.o)
 .debug_aranges
                0x0000000000000a20       0x38 ym/mbed-hal-ksdk-mcu/source/mbed-hal-ksdk-mcu.a(pinmap.c.o)
 .debug_aranges
                0x0000000000000a58       0x50 ym/mbed-hal-ksdk-mcu/source/mbed-hal-ksdk-mcu.a(fsl_mcg_hal.c.o)
 .debug_aranges
                0x0000000000000aa8       0x50 ym/minar-platform-mbed/source/minar-platform-mbed.a(mbed_platform.cpp.o)
 .debug_aranges
                0x0000000000000af8       0x28 ym/mbed-hal-k64f/source/mbed-hal-k64f.a(startup_MK64F12.S.obj)
 .debug_aranges
                0x0000000000000b20       0xe8 ym/mbed-hal-k64f/source/mbed-hal-k64f.a(fsl_clock_K64F12.c.o)
 .debug_aranges
                0x0000000000000c08      0x2b8 ym/mbed-hal-k64f/source/mbed-hal-k64f.a(fsl_sim_hal_K64F12.c.o)
 .debug_aranges
                0x0000000000000ec0       0x20 ym/mbed-hal-frdm-k64f/source/mbed-hal-frdm-k64f.a(init_api.c.o)
 .debug_aranges
                0x0000000000000ee0       0x18 ym/mbed-hal-frdm-k64f/source/mbed-hal-frdm-k64f.a(PeripheralPins.c.o)
 .debug_aranges
                0x0000000000000ef8       0x48 ym/mbed-drivers/source/mbed-drivers.a(pinmap_common.c.o)
 .debug_aranges
                0x0000000000000f40       0x28 ym/mbed-drivers/source/mbed-drivers.a(us_ticker_api.c.o)
 .debug_aranges
                0x0000000000000f68       0x40 ym/mbed-drivers/source/mbed-drivers.a(ticker_api.c.o)
 .debug_aranges
                0x0000000000000fa8       0x28 ym/mbed-hal-ksdk-mcu/source/mbed-hal-ksdk-mcu.a(sleep.c.o)
 .debug_aranges
                0x0000000000000fd0       0x90 ym/mbed-hal-ksdk-mcu/source/mbed-hal-ksdk-mcu.a(fsl_smc_hal.c.o)
 .debug_aranges
                0x0000000000001060       0x90 ym/mbed-hal-ksdk-mcu/source/mbed-hal-ksdk-mcu.a(lp_ticker.c.o)
 .debug_aranges
                0x00000000000010f0       0x90 ym/mbed-hal-ksdk-mcu/source/mbed-hal-ksdk-mcu.a(fsl_rtc_hal.c.o)
 .debug_aranges
                0x0000000000001180       0x30 ym/ualloc/source/ualloc.a(ualloc.c.o)
 .debug_aranges
                0x00000000000011b0       0xe8 ym/dlmalloc/source/dlmalloc.a(dlmalloc.c.o)
 .debug_aranges
                0x0000000000001298       0x28 ym/cmsis-core-k64f/source/cmsis-core-k64f.a(system_MK64F12.c.o)
 .debug_aranges
                0x00000000000012c0       0x68 ym/uvisor-lib/source/uvisor-lib.a(interrupts.cpp.o)
 .debug_aranges
                0x0000000000001328       0x38 ym/core-util/source/core-util.a(sbrk.cpp.o)
 .debug_aranges
                0x0000000000001360       0x40 ym/ualloc/source/ualloc.a(malloc.c.o)
 .debug_aranges
                0x00000000000013a0       0x28 ym/cmsis-core/source/cmsis-core.a(cmsis_nvic.c.o)

.debug_ranges   0x0000000000000000     0x2930
 .debug_ranges  0x0000000000000000       0x10 test/CMakeFiles/ds1820-mbedos-test-sense.dir/Users/andrewbrannan/converge/code/DS1820-mbedOS/test/sense.cpp.o
 .debug_ranges  0x0000000000000010      0x318 ym/mbed-drivers/source/mbed-drivers.a(retarget.cpp.o)
 .debug_ranges  0x0000000000000328       0x10 ym/mbed-drivers/source/mbed-drivers.a(exit.c.o)
 .debug_ranges  0x0000000000000338       0x18 ym/mbed-drivers/source/mbed-drivers.a(board.c.o)
 .debug_ranges  0x0000000000000350       0x20 ym/mbed-drivers/source/mbed-drivers.a(wait_api.c.o)
 .debug_ranges  0x0000000000000370       0x10 ym/mbed-drivers/source/mbed-drivers.a(error.c.o)
 .debug_ranges  0x0000000000000380       0xb8 ym/mbed-drivers/source/mbed-drivers.a(gpio.c.o)
 .debug_ranges  0x0000000000000438      0x248 source/ds1820-mbedos.a(DS1820.cpp.o)
 .debug_ranges  0x0000000000000680       0x90 source/ds1820-mbedos.a(LinkedList.cpp.o)
 .debug_ranges  0x0000000000000710      0x458 ym/minar/source/minar.a(minar.cpp.o)
 .debug_ranges  0x0000000000000b68       0x80 ym/core-util/source/core-util.a(ExtendablePoolAllocator.cpp.o)
 .debug_ranges  0x0000000000000be8       0x68 ym/core-util/source/core-util.a(PoolAllocator.cpp.o)
 .debug_ranges  0x0000000000000c50       0x18 ym/core-util/source/core-util.a(core-util_mbed_os.c.o)
 .debug_ranges  0x0000000000000c68      0x330 ym/mbed-hal-ksdk-mcu/source/mbed-hal-ksdk-mcu.a(serial_api.c.o)
 .debug_ranges  0x0000000000000f98       0x38 ym/mbed-hal-ksdk-mcu/source/mbed-hal-ksdk-mcu.a(fsl_clock_manager.c.o)
 .debug_ranges  0x0000000000000fd0       0x40 ym/mbed-hal-ksdk-mcu/source/mbed-hal-ksdk-mcu.a(gpio_api.c.o)
 .debug_ranges  0x0000000000001010       0x58 ym/mbed-hal-ksdk-mcu/source/mbed-hal-ksdk-mcu.a(us_ticker.c.o)
 .debug_ranges  0x0000000000001068      0x1e0 ym/mbed-hal-ksdk-mcu/source/mbed-hal-ksdk-mcu.a(fsl_uart_hal.c.o)
 .debug_ranges  0x0000000000001248      0x138 ym/mbed-hal-ksdk-mcu/source/mbed-hal-ksdk-mcu.a(fsl_sim_hal.c.o)
 .debug_ranges  0x0000000000001380       0x48 ym/mbed-hal-ksdk-mcu/source/mbed-hal-ksdk-mcu.a(fsl_gpio_hal.c.o)
 .debug_ranges  0x00000000000013c8       0x58 ym/mbed-hal-ksdk-mcu/source/mbed-hal-ksdk-mcu.a(pinmap.c.o)
 .debug_ranges  0x0000000000001420       0xa0 ym/mbed-hal-ksdk-mcu/source/mbed-hal-ksdk-mcu.a(fsl_mcg_hal.c.o)
 .debug_ranges  0x00000000000014c0       0x98 ym/minar-platform-mbed/source/minar-platform-mbed.a(mbed_platform.cpp.o)
 .debug_ranges  0x0000000000001558       0x20 ym/mbed-hal-k64f/source/mbed-hal-k64f.a(startup_MK64F12.S.obj)
 .debug_ranges  0x0000000000001578       0xd8 ym/mbed-hal-k64f/source/mbed-hal-k64f.a(fsl_clock_K64F12.c.o)
 .debug_ranges  0x0000000000001650      0x608 ym/mbed-hal-k64f/source/mbed-hal-k64f.a(fsl_sim_hal_K64F12.c.o)
 .debug_ranges  0x0000000000001c58       0x10 ym/mbed-hal-frdm-k64f/source/mbed-hal-frdm-k64f.a(init_api.c.o)
 .debug_ranges  0x0000000000001c68       0x38 ym/mbed-drivers/source/mbed-drivers.a(pinmap_common.c.o)
 .debug_ranges  0x0000000000001ca0       0x18 ym/mbed-drivers/source/mbed-drivers.a(us_ticker_api.c.o)
 .debug_ranges  0x0000000000001cb8       0x30 ym/mbed-drivers/source/mbed-drivers.a(ticker_api.c.o)
 .debug_ranges  0x0000000000001ce8       0x18 ym/mbed-hal-ksdk-mcu/source/mbed-hal-ksdk-mcu.a(sleep.c.o)
 .debug_ranges  0x0000000000001d00       0x98 ym/mbed-hal-ksdk-mcu/source/mbed-hal-ksdk-mcu.a(fsl_smc_hal.c.o)
 .debug_ranges  0x0000000000001d98       0xe8 ym/mbed-hal-ksdk-mcu/source/mbed-hal-ksdk-mcu.a(lp_ticker.c.o)
 .debug_ranges  0x0000000000001e80       0xb0 ym/mbed-hal-ksdk-mcu/source/mbed-hal-ksdk-mcu.a(fsl_rtc_hal.c.o)
 .debug_ranges  0x0000000000001f30       0x20 ym/ualloc/source/ualloc.a(ualloc.c.o)
 .debug_ranges  0x0000000000001f50      0x8b0 ym/dlmalloc/source/dlmalloc.a(dlmalloc.c.o)
 .debug_ranges  0x0000000000002800       0x18 ym/cmsis-core-k64f/source/cmsis-core-k64f.a(system_MK64F12.c.o)
 .debug_ranges  0x0000000000002818       0x88 ym/uvisor-lib/source/uvisor-lib.a(interrupts.cpp.o)
 .debug_ranges  0x00000000000028a0       0x48 ym/core-util/source/core-util.a(sbrk.cpp.o)
 .debug_ranges  0x00000000000028e8       0x30 ym/ualloc/source/ualloc.a(malloc.c.o)
 .debug_ranges  0x0000000000002918       0x18 ym/cmsis-core/source/cmsis-core.a(cmsis_nvic.c.o)

.debug_line     0x0000000000000000     0xeb8e
 .debug_line    0x0000000000000000      0x731 test/CMakeFiles/ds1820-mbedos-test-sense.dir/Users/andrewbrannan/converge/code/DS1820-mbedOS/test/sense.cpp.o
 .debug_line    0x0000000000000731      0xc97 ym/mbed-drivers/source/mbed-drivers.a(retarget.cpp.o)
 .debug_line    0x00000000000013c8      0x319 ym/mbed-drivers/source/mbed-drivers.a(exit.c.o)
 .debug_line    0x00000000000016e1      0x3ec ym/mbed-drivers/source/mbed-drivers.a(board.c.o)
 .debug_line    0x0000000000001acd      0x245 ym/mbed-drivers/source/mbed-drivers.a(wait_api.c.o)
 .debug_line    0x0000000000001d12      0x2c2 ym/mbed-drivers/source/mbed-drivers.a(error.c.o)
 .debug_line    0x0000000000001fd4      0x42c ym/mbed-drivers/source/mbed-drivers.a(gpio.c.o)
 .debug_line    0x0000000000002400      0xb8b source/ds1820-mbedos.a(DS1820.cpp.o)
 .debug_line    0x0000000000002f8b      0x684 source/ds1820-mbedos.a(LinkedList.cpp.o)
 .debug_line    0x000000000000360f      0xd4d ym/minar/source/minar.a(minar.cpp.o)
 .debug_line    0x000000000000435c      0x509 ym/core-util/source/core-util.a(ExtendablePoolAllocator.cpp.o)
 .debug_line    0x0000000000004865      0x3c8 ym/core-util/source/core-util.a(PoolAllocator.cpp.o)
 .debug_line    0x0000000000004c2d      0x35c ym/core-util/source/core-util.a(core-util_mbed_os.c.o)
 .debug_line    0x0000000000004f89      0xe6e ym/mbed-hal-ksdk-mcu/source/mbed-hal-ksdk-mcu.a(serial_api.c.o)
 .debug_line    0x0000000000005df7      0x42d ym/mbed-hal-ksdk-mcu/source/mbed-hal-ksdk-mcu.a(fsl_clock_manager.c.o)
 .debug_line    0x0000000000006224      0x647 ym/mbed-hal-ksdk-mcu/source/mbed-hal-ksdk-mcu.a(gpio_api.c.o)
 .debug_line    0x000000000000686b      0x637 ym/mbed-hal-ksdk-mcu/source/mbed-hal-ksdk-mcu.a(us_ticker.c.o)
 .debug_line    0x0000000000006ea2      0xa7e ym/mbed-hal-ksdk-mcu/source/mbed-hal-ksdk-mcu.a(fsl_uart_hal.c.o)
 .debug_line    0x0000000000007920      0xae2 ym/mbed-hal-ksdk-mcu/source/mbed-hal-ksdk-mcu.a(fsl_sim_hal.c.o)
 .debug_line    0x0000000000008402      0x32a ym/mbed-hal-ksdk-mcu/source/mbed-hal-ksdk-mcu.a(fsl_gpio_hal.c.o)
 .debug_line    0x000000000000872c      0x556 ym/mbed-hal-ksdk-mcu/source/mbed-hal-ksdk-mcu.a(pinmap.c.o)
 .debug_line    0x0000000000008c82      0x4fd ym/mbed-hal-ksdk-mcu/source/mbed-hal-ksdk-mcu.a(fsl_mcg_hal.c.o)
 .debug_line    0x000000000000917f      0x4bb ym/minar-platform-mbed/source/minar-platform-mbed.a(mbed_platform.cpp.o)
 .debug_line    0x000000000000963a       0xe4 ym/mbed-hal-k64f/source/mbed-hal-k64f.a(startup_MK64F12.S.obj)
 .debug_line    0x000000000000971e      0x592 ym/mbed-hal-k64f/source/mbed-hal-k64f.a(fsl_clock_K64F12.c.o)
 .debug_line    0x0000000000009cb0      0xe2f ym/mbed-hal-k64f/source/mbed-hal-k64f.a(fsl_sim_hal_K64F12.c.o)
 .debug_line    0x000000000000aadf       0x93 ym/mbed-hal-frdm-k64f/source/mbed-hal-frdm-k64f.a(init_api.c.o)
 .debug_line    0x000000000000ab72      0x302 ym/mbed-hal-frdm-k64f/source/mbed-hal-frdm-k64f.a(PeripheralPins.c.o)
 .debug_line    0x000000000000ae74      0x396 ym/mbed-drivers/source/mbed-drivers.a(pinmap_common.c.o)
 .debug_line    0x000000000000b20a      0x22e ym/mbed-drivers/source/mbed-drivers.a(us_ticker_api.c.o)
 .debug_line    0x000000000000b438      0x2bc ym/mbed-drivers/source/mbed-drivers.a(ticker_api.c.o)
 .debug_line    0x000000000000b6f4      0x44f ym/mbed-hal-ksdk-mcu/source/mbed-hal-ksdk-mcu.a(sleep.c.o)
 .debug_line    0x000000000000bb43      0x56c ym/mbed-hal-ksdk-mcu/source/mbed-hal-ksdk-mcu.a(fsl_smc_hal.c.o)
 .debug_line    0x000000000000c0af      0x9b7 ym/mbed-hal-ksdk-mcu/source/mbed-hal-ksdk-mcu.a(lp_ticker.c.o)
 .debug_line    0x000000000000ca66      0x57a ym/mbed-hal-ksdk-mcu/source/mbed-hal-ksdk-mcu.a(fsl_rtc_hal.c.o)
 .debug_line    0x000000000000cfe0      0x2c1 ym/ualloc/source/ualloc.a(ualloc.c.o)
 .debug_line    0x000000000000d2a1      0x9e7 ym/dlmalloc/source/dlmalloc.a(dlmalloc.c.o)
 .debug_line    0x000000000000dc88      0x2c9 ym/cmsis-core-k64f/source/cmsis-core-k64f.a(system_MK64F12.c.o)
 .debug_line    0x000000000000df51      0x3ed ym/uvisor-lib/source/uvisor-lib.a(interrupts.cpp.o)
 .debug_line    0x000000000000e33e      0x338 ym/core-util/source/core-util.a(sbrk.cpp.o)
 .debug_line    0x000000000000e676      0x2d2 ym/ualloc/source/ualloc.a(malloc.c.o)
 .debug_line    0x000000000000e948      0x246 ym/cmsis-core/source/cmsis-core.a(cmsis_nvic.c.o)

.debug_str      0x0000000000000000     0xaf7d
 .debug_str     0x0000000000000000     0x1448 test/CMakeFiles/ds1820-mbedos-test-sense.dir/Users/andrewbrannan/converge/code/DS1820-mbedOS/test/sense.cpp.o
                                       0x15ff (size before relaxing)
 .debug_str     0x0000000000001448     0x15eb ym/mbed-drivers/source/mbed-drivers.a(retarget.cpp.o)
                                       0x2645 (size before relaxing)
 .debug_str     0x0000000000002a33      0x13d ym/mbed-drivers/source/mbed-drivers.a(exit.c.o)
                                        0x5fa (size before relaxing)
 .debug_str     0x0000000000002b70       0xac ym/mbed-drivers/source/mbed-drivers.a(board.c.o)
                                        0x649 (size before relaxing)
 .debug_str     0x0000000000002c1c       0x75 ym/mbed-drivers/source/mbed-drivers.a(wait_api.c.o)
                                        0x215 (size before relaxing)
 .debug_str     0x0000000000002c91       0x64 ym/mbed-drivers/source/mbed-drivers.a(error.c.o)
                                        0x61b (size before relaxing)
 .debug_str     0x0000000000002cf5       0xc5 ym/mbed-drivers/source/mbed-drivers.a(gpio.c.o)
                                        0x6fc (size before relaxing)
 .debug_str     0x0000000000002dba      0x356 source/ds1820-mbedos.a(DS1820.cpp.o)
                                       0x19da (size before relaxing)
 .debug_str     0x0000000000003110       0xbe source/ds1820-mbedos.a(LinkedList.cpp.o)
                                        0xcb7 (size before relaxing)
 .debug_str     0x00000000000031ce     0x14ea ym/minar/source/minar.a(minar.cpp.o)
                                       0x26dc (size before relaxing)
 .debug_str     0x00000000000046b8       0xff ym/core-util/source/core-util.a(ExtendablePoolAllocator.cpp.o)
                                        0x7c1 (size before relaxing)
 .debug_str     0x00000000000047b7       0xe7 ym/core-util/source/core-util.a(PoolAllocator.cpp.o)
                                        0x540 (size before relaxing)
 .debug_str     0x000000000000489e       0x98 ym/core-util/source/core-util.a(core-util_mbed_os.c.o)
                                        0x68f (size before relaxing)
 .debug_str     0x0000000000004936      0xef2 ym/mbed-hal-ksdk-mcu/source/mbed-hal-ksdk-mcu.a(serial_api.c.o)
                                       0x1ba0 (size before relaxing)
 .debug_str     0x0000000000005828      0x81c ym/mbed-hal-ksdk-mcu/source/mbed-hal-ksdk-mcu.a(fsl_clock_manager.c.o)
                                        0x9cf (size before relaxing)
 .debug_str     0x0000000000006044      0x1c5 ym/mbed-hal-ksdk-mcu/source/mbed-hal-ksdk-mcu.a(gpio_api.c.o)
                                        0x849 (size before relaxing)
 .debug_str     0x0000000000006209      0x1cf ym/mbed-hal-ksdk-mcu/source/mbed-hal-ksdk-mcu.a(us_ticker.c.o)
                                        0xb3a (size before relaxing)
 .debug_str     0x00000000000063d8      0x471 ym/mbed-hal-ksdk-mcu/source/mbed-hal-ksdk-mcu.a(fsl_uart_hal.c.o)
                                        0xbeb (size before relaxing)
 .debug_str     0x0000000000006849      0x9e0 ym/mbed-hal-ksdk-mcu/source/mbed-hal-ksdk-mcu.a(fsl_sim_hal.c.o)
                                        0xfd5 (size before relaxing)
 .debug_str     0x0000000000007229       0x81 ym/mbed-hal-ksdk-mcu/source/mbed-hal-ksdk-mcu.a(fsl_gpio_hal.c.o)
                                        0x2f4 (size before relaxing)
 .debug_str     0x00000000000072aa       0xd4 ym/mbed-hal-ksdk-mcu/source/mbed-hal-ksdk-mcu.a(pinmap.c.o)
                                        0x7f1 (size before relaxing)
 .debug_str     0x000000000000737e      0xb2c ym/mbed-hal-ksdk-mcu/source/mbed-hal-ksdk-mcu.a(fsl_mcg_hal.c.o)
                                        0xd76 (size before relaxing)
 .debug_str     0x0000000000007eaa      0x206 ym/minar-platform-mbed/source/minar-platform-mbed.a(mbed_platform.cpp.o)
                                        0x530 (size before relaxing)
 .debug_str     0x00000000000080b0      0x488 ym/mbed-hal-k64f/source/mbed-hal-k64f.a(fsl_clock_K64F12.c.o)
                                        0xc3d (size before relaxing)
 .debug_str     0x0000000000008538      0x7f6 ym/mbed-hal-k64f/source/mbed-hal-k64f.a(fsl_sim_hal_K64F12.c.o)
                                        0xd8e (size before relaxing)
 .debug_str     0x0000000000008d2e       0x64 ym/mbed-hal-frdm-k64f/source/mbed-hal-frdm-k64f.a(init_api.c.o)
                                        0x134 (size before relaxing)
 .debug_str     0x0000000000008d92      0x2ff ym/mbed-hal-frdm-k64f/source/mbed-hal-frdm-k64f.a(PeripheralPins.c.o)
                                        0x8b3 (size before relaxing)
 .debug_str     0x0000000000009091       0x9f ym/mbed-drivers/source/mbed-drivers.a(pinmap_common.c.o)
                                        0x6a1 (size before relaxing)
 .debug_str     0x0000000000009130      0x117 ym/mbed-drivers/source/mbed-drivers.a(us_ticker_api.c.o)
                                        0x323 (size before relaxing)
 .debug_str     0x0000000000009247       0xa8 ym/mbed-drivers/source/mbed-drivers.a(ticker_api.c.o)
                                        0x34f (size before relaxing)
 .debug_str     0x00000000000092ef      0x12a ym/mbed-hal-ksdk-mcu/source/mbed-hal-ksdk-mcu.a(sleep.c.o)
                                        0x3ad (size before relaxing)
 .debug_str     0x0000000000009419      0x6ce ym/mbed-hal-ksdk-mcu/source/mbed-hal-ksdk-mcu.a(fsl_smc_hal.c.o)
                                        0x9b5 (size before relaxing)
 .debug_str     0x0000000000009ae7      0x3d6 ym/mbed-hal-ksdk-mcu/source/mbed-hal-ksdk-mcu.a(lp_ticker.c.o)
                                        0xe57 (size before relaxing)
 .debug_str     0x0000000000009ebd      0x2c7 ym/mbed-hal-ksdk-mcu/source/mbed-hal-ksdk-mcu.a(fsl_rtc_hal.c.o)
                                        0x58b (size before relaxing)
 .debug_str     0x000000000000a184      0x17b ym/ualloc/source/ualloc.a(ualloc.c.o)
                                        0x379 (size before relaxing)
 .debug_str     0x000000000000a2ff      0x5e5 ym/dlmalloc/source/dlmalloc.a(dlmalloc.c.o)
                                        0x846 (size before relaxing)
 .debug_str     0x000000000000a8e4      0x26a ym/cmsis-core-k64f/source/cmsis-core-k64f.a(system_MK64F12.c.o)
                                        0x8f1 (size before relaxing)
 .debug_str     0x000000000000ab4e      0x1d0 ym/uvisor-lib/source/uvisor-lib.a(interrupts.cpp.o)
                                        0x946 (size before relaxing)
 .debug_str     0x000000000000ad1e      0x14d ym/core-util/source/core-util.a(sbrk.cpp.o)
                                        0x3ff (size before relaxing)
 .debug_str     0x000000000000ae6b       0xa8 ym/ualloc/source/ualloc.a(malloc.c.o)
                                        0x668 (size before relaxing)
 .debug_str     0x000000000000af13       0x6a ym/cmsis-core/source/cmsis-core.a(cmsis_nvic.c.o)
                                        0x763 (size before relaxing)

.debug_frame    0x0000000000000000     0x3860
 .debug_frame   0x0000000000000000       0x2c test/CMakeFiles/ds1820-mbedos-test-sense.dir/Users/andrewbrannan/converge/code/DS1820-mbedOS/test/sense.cpp.o
 .debug_frame   0x000000000000002c      0x3ec ym/mbed-drivers/source/mbed-drivers.a(retarget.cpp.o)
 .debug_frame   0x0000000000000418       0x28 ym/mbed-drivers/source/mbed-drivers.a(exit.c.o)
 .debug_frame   0x0000000000000440       0x54 ym/mbed-drivers/source/mbed-drivers.a(board.c.o)
 .debug_frame   0x0000000000000494       0x58 ym/mbed-drivers/source/mbed-drivers.a(wait_api.c.o)
 .debug_frame   0x00000000000004ec       0x30 ym/mbed-drivers/source/mbed-drivers.a(error.c.o)
 .debug_frame   0x000000000000051c       0xf4 ym/mbed-drivers/source/mbed-drivers.a(gpio.c.o)
 .debug_frame   0x0000000000000610      0x2d0 source/ds1820-mbedos.a(DS1820.cpp.o)
 .debug_frame   0x00000000000008e0       0xb8 source/ds1820-mbedos.a(LinkedList.cpp.o)
 .debug_frame   0x0000000000000998      0x40c ym/minar/source/minar.a(minar.cpp.o)
 .debug_frame   0x0000000000000da4       0xec ym/core-util/source/core-util.a(ExtendablePoolAllocator.cpp.o)
 .debug_frame   0x0000000000000e90       0xd0 ym/core-util/source/core-util.a(PoolAllocator.cpp.o)
 .debug_frame   0x0000000000000f60       0x5c ym/core-util/source/core-util.a(core-util_mbed_os.c.o)
 .debug_frame   0x0000000000000fbc      0x458 ym/mbed-hal-ksdk-mcu/source/mbed-hal-ksdk-mcu.a(serial_api.c.o)
 .debug_frame   0x0000000000001414       0xb0 ym/mbed-hal-ksdk-mcu/source/mbed-hal-ksdk-mcu.a(fsl_clock_manager.c.o)
 .debug_frame   0x00000000000014c4       0x90 ym/mbed-hal-ksdk-mcu/source/mbed-hal-ksdk-mcu.a(gpio_api.c.o)
 .debug_frame   0x0000000000001554       0xa4 ym/mbed-hal-ksdk-mcu/source/mbed-hal-ksdk-mcu.a(us_ticker.c.o)
 .debug_frame   0x00000000000015f8      0x214 ym/mbed-hal-ksdk-mcu/source/mbed-hal-ksdk-mcu.a(fsl_uart_hal.c.o)
 .debug_frame   0x000000000000180c      0x1a0 ym/mbed-hal-ksdk-mcu/source/mbed-hal-ksdk-mcu.a(fsl_sim_hal.c.o)
 .debug_frame   0x00000000000019ac       0x38 ym/mbed-hal-ksdk-mcu/source/mbed-hal-ksdk-mcu.a(fsl_gpio_hal.c.o)
 .debug_frame   0x00000000000019e4       0x8c ym/mbed-hal-ksdk-mcu/source/mbed-hal-ksdk-mcu.a(pinmap.c.o)
 .debug_frame   0x0000000000001a70       0xbc ym/mbed-hal-ksdk-mcu/source/mbed-hal-ksdk-mcu.a(fsl_mcg_hal.c.o)
 .debug_frame   0x0000000000001b2c       0xa8 ym/minar-platform-mbed/source/minar-platform-mbed.a(mbed_platform.cpp.o)
 .debug_frame   0x0000000000001bd4      0x280 ym/mbed-hal-k64f/source/mbed-hal-k64f.a(fsl_clock_K64F12.c.o)
 .debug_frame   0x0000000000001e54      0x550 ym/mbed-hal-k64f/source/mbed-hal-k64f.a(fsl_sim_hal_K64F12.c.o)
 .debug_frame   0x00000000000023a4       0x20 ym/mbed-hal-frdm-k64f/source/mbed-hal-frdm-k64f.a(init_api.c.o)
 .debug_frame   0x00000000000023c4       0x9c ym/mbed-drivers/source/mbed-drivers.a(pinmap_common.c.o)
 .debug_frame   0x0000000000002460       0x30 ym/mbed-drivers/source/mbed-drivers.a(us_ticker_api.c.o)
 .debug_frame   0x0000000000002490       0x9c ym/mbed-drivers/source/mbed-drivers.a(ticker_api.c.o)
 .debug_frame   0x000000000000252c       0x38 ym/mbed-hal-ksdk-mcu/source/mbed-hal-ksdk-mcu.a(sleep.c.o)
 .debug_frame   0x0000000000002564      0x110 ym/mbed-hal-ksdk-mcu/source/mbed-hal-ksdk-mcu.a(fsl_smc_hal.c.o)
 .debug_frame   0x0000000000002674      0x140 ym/mbed-hal-ksdk-mcu/source/mbed-hal-ksdk-mcu.a(lp_ticker.c.o)
 .debug_frame   0x00000000000027b4      0x16c ym/mbed-hal-ksdk-mcu/source/mbed-hal-ksdk-mcu.a(fsl_rtc_hal.c.o)
 .debug_frame   0x0000000000002920       0x60 ym/ualloc/source/ualloc.a(ualloc.c.o)
 .debug_frame   0x0000000000002980      0x2dc ym/dlmalloc/source/dlmalloc.a(dlmalloc.c.o)
 .debug_frame   0x0000000000002c5c       0x30 ym/cmsis-core-k64f/source/cmsis-core-k64f.a(system_MK64F12.c.o)
 .debug_frame   0x0000000000002c8c       0xd0 ym/uvisor-lib/source/uvisor-lib.a(interrupts.cpp.o)
 .debug_frame   0x0000000000002d5c       0x20 /usr/local/Cellar/arm-none-eabi-gcc/4.9-2015-q2-update/bin/../lib/gcc/arm-none-eabi/4.9.3/../../../../arm-none-eabi/lib/armv7e-m/libstdc++_nano.a(atexit_arm.o)
 .debug_frame   0x0000000000002d7c       0x20 /usr/local/Cellar/arm-none-eabi-gcc/4.9-2015-q2-update/bin/../lib/gcc/arm-none-eabi/4.9.3/../../../../arm-none-eabi/lib/armv7e-m/libstdc++_nano.a(del_op.o)
 .debug_frame   0x0000000000002d9c       0x20 /usr/local/Cellar/arm-none-eabi-gcc/4.9-2015-q2-update/bin/../lib/gcc/arm-none-eabi/4.9.3/../../../../arm-none-eabi/lib/armv7e-m/libstdc++_nano.a(del_opv.o)
 .debug_frame   0x0000000000002dbc       0x28 /usr/local/Cellar/arm-none-eabi-gcc/4.9-2015-q2-update/bin/../lib/gcc/arm-none-eabi/4.9.3/../../../../arm-none-eabi/lib/armv7e-m/libstdc++_nano.a(new_op.o)
 .debug_frame   0x0000000000002de4       0x20 /usr/local/Cellar/arm-none-eabi-gcc/4.9-2015-q2-update/bin/../lib/gcc/arm-none-eabi/4.9.3/../../../../arm-none-eabi/lib/armv7e-m/libstdc++_nano.a(new_opv.o)
 .debug_frame   0x0000000000002e04       0x30 /usr/local/Cellar/arm-none-eabi-gcc/4.9-2015-q2-update/bin/../lib/gcc/arm-none-eabi/4.9.3/../../../../arm-none-eabi/lib/armv7e-m/libstdc++_nano.a(new_handler.o)
 .debug_frame   0x0000000000002e34       0x34 /usr/local/Cellar/arm-none-eabi-gcc/4.9-2015-q2-update/bin/../lib/gcc/arm-none-eabi/4.9.3/../../../../arm-none-eabi/lib/armv7e-m/libm.a(lib_a-s_floor.o)
 .debug_frame   0x0000000000002e68       0x30 /usr/local/Cellar/arm-none-eabi-gcc/4.9-2015-q2-update/bin/../lib/gcc/arm-none-eabi/4.9.3/../../../../arm-none-eabi/lib/armv7e-m/libm.a(lib_a-s_round.o)
 .debug_frame   0x0000000000002e98       0x28 /usr/local/Cellar/arm-none-eabi-gcc/4.9-2015-q2-update/bin/../lib/gcc/arm-none-eabi/4.9.3/../../../../arm-none-eabi/lib/armv7e-m/libc_nano.a(lib_a-abort.o)
 .debug_frame   0x0000000000002ec0       0x2c /usr/local/Cellar/arm-none-eabi-gcc/4.9-2015-q2-update/bin/../lib/gcc/arm-none-eabi/4.9.3/../../../../arm-none-eabi/lib/armv7e-m/libc_nano.a(lib_a-cxa_atexit.o)
 .debug_frame   0x0000000000002eec       0x20 /usr/local/Cellar/arm-none-eabi-gcc/4.9-2015-q2-update/bin/../lib/gcc/arm-none-eabi/4.9.3/../../../../arm-none-eabi/lib/armv7e-m/libc_nano.a(lib_a-errno.o)
 .debug_frame   0x0000000000002f0c       0x68 /usr/local/Cellar/arm-none-eabi-gcc/4.9-2015-q2-update/bin/../lib/gcc/arm-none-eabi/4.9.3/../../../../arm-none-eabi/lib/armv7e-m/libc_nano.a(lib_a-fflush.o)
 .debug_frame   0x0000000000002f74      0x11c /usr/local/Cellar/arm-none-eabi-gcc/4.9-2015-q2-update/bin/../lib/gcc/arm-none-eabi/4.9.3/../../../../arm-none-eabi/lib/armv7e-m/libc_nano.a(lib_a-findfp.o)
 .debug_frame   0x0000000000003090       0x64 /usr/local/Cellar/arm-none-eabi-gcc/4.9-2015-q2-update/bin/../lib/gcc/arm-none-eabi/4.9.3/../../../../arm-none-eabi/lib/armv7e-m/libc_nano.a(lib_a-fprintf.o)
 .debug_frame   0x00000000000030f4       0x54 /usr/local/Cellar/arm-none-eabi-gcc/4.9-2015-q2-update/bin/../lib/gcc/arm-none-eabi/4.9.3/../../../../arm-none-eabi/lib/armv7e-m/libc_nano.a(lib_a-fwalk.o)
 .debug_frame   0x0000000000003148       0x2c /usr/local/Cellar/arm-none-eabi-gcc/4.9-2015-q2-update/bin/../lib/gcc/arm-none-eabi/4.9.3/../../../../arm-none-eabi/lib/armv7e-m/libc_nano.a(lib_a-init.o)
 .debug_frame   0x0000000000003174       0x30 /usr/local/Cellar/arm-none-eabi-gcc/4.9-2015-q2-update/bin/../lib/gcc/arm-none-eabi/4.9.3/../../../../arm-none-eabi/lib/armv7e-m/libc_nano.a(lib_a-malloc.o)
 .debug_frame   0x00000000000031a4       0x20 /usr/local/Cellar/arm-none-eabi-gcc/4.9-2015-q2-update/bin/../lib/gcc/arm-none-eabi/4.9.3/../../../../arm-none-eabi/lib/armv7e-m/libc_nano.a(lib_a-memset.o)
 .debug_frame   0x00000000000031c4       0xb8 /usr/local/Cellar/arm-none-eabi-gcc/4.9-2015-q2-update/bin/../lib/gcc/arm-none-eabi/4.9.3/../../../../arm-none-eabi/lib/armv7e-m/libc_nano.a(lib_a-nano-vfprintf.o)
 .debug_frame   0x000000000000327c       0x58 /usr/local/Cellar/arm-none-eabi-gcc/4.9-2015-q2-update/bin/../lib/gcc/arm-none-eabi/4.9.3/../../../../arm-none-eabi/lib/armv7e-m/libc_nano.a(lib_a-nano-vfprintf_i.o)
 .debug_frame   0x00000000000032d4       0x74 /usr/local/Cellar/arm-none-eabi-gcc/4.9-2015-q2-update/bin/../lib/gcc/arm-none-eabi/4.9.3/../../../../arm-none-eabi/lib/armv7e-m/libc_nano.a(lib_a-printf.o)
 .debug_frame   0x0000000000003348       0x3c /usr/local/Cellar/arm-none-eabi-gcc/4.9-2015-q2-update/bin/../lib/gcc/arm-none-eabi/4.9.3/../../../../arm-none-eabi/lib/armv7e-m/libc_nano.a(lib_a-puts.o)
 .debug_frame   0x0000000000003384       0xcc /usr/local/Cellar/arm-none-eabi-gcc/4.9-2015-q2-update/bin/../lib/gcc/arm-none-eabi/4.9.3/../../../../arm-none-eabi/lib/armv7e-m/libc_nano.a(lib_a-signal.o)
 .debug_frame   0x0000000000003450       0x3c /usr/local/Cellar/arm-none-eabi-gcc/4.9-2015-q2-update/bin/../lib/gcc/arm-none-eabi/4.9.3/../../../../arm-none-eabi/lib/armv7e-m/libc_nano.a(lib_a-signalr.o)
 .debug_frame   0x000000000000348c       0x88 /usr/local/Cellar/arm-none-eabi-gcc/4.9-2015-q2-update/bin/../lib/gcc/arm-none-eabi/4.9.3/../../../../arm-none-eabi/lib/armv7e-m/libc_nano.a(lib_a-stdio.o)
 .debug_frame   0x0000000000003514       0x3c /usr/local/Cellar/arm-none-eabi-gcc/4.9-2015-q2-update/bin/../lib/gcc/arm-none-eabi/4.9.3/../../../../arm-none-eabi/lib/armv7e-m/libc_nano.a(lib_a-wbuf.o)
 .debug_frame   0x0000000000003550       0x2c /usr/local/Cellar/arm-none-eabi-gcc/4.9-2015-q2-update/bin/../lib/gcc/arm-none-eabi/4.9.3/../../../../arm-none-eabi/lib/armv7e-m/libc_nano.a(lib_a-writer.o)
 .debug_frame   0x000000000000357c       0x2c /usr/local/Cellar/arm-none-eabi-gcc/4.9-2015-q2-update/bin/../lib/gcc/arm-none-eabi/4.9.3/../../../../arm-none-eabi/lib/armv7e-m/libc_nano.a(lib_a-wsetup.o)
 .debug_frame   0x00000000000035a8       0x2c /usr/local/Cellar/arm-none-eabi-gcc/4.9-2015-q2-update/bin/../lib/gcc/arm-none-eabi/4.9.3/../../../../arm-none-eabi/lib/armv7e-m/libc_nano.a(lib_a-closer.o)
 .debug_frame   0x00000000000035d4       0x2c /usr/local/Cellar/arm-none-eabi-gcc/4.9-2015-q2-update/bin/../lib/gcc/arm-none-eabi/4.9.3/../../../../arm-none-eabi/lib/armv7e-m/libc_nano.a(lib_a-lseekr.o)
 .debug_frame   0x0000000000003600       0x34 /usr/local/Cellar/arm-none-eabi-gcc/4.9-2015-q2-update/bin/../lib/gcc/arm-none-eabi/4.9.3/../../../../arm-none-eabi/lib/armv7e-m/libc_nano.a(lib_a-makebuf.o)
 .debug_frame   0x0000000000003634       0x28 /usr/local/Cellar/arm-none-eabi-gcc/4.9-2015-q2-update/bin/../lib/gcc/arm-none-eabi/4.9.3/../../../../arm-none-eabi/lib/armv7e-m/libc_nano.a(lib_a-memchr.o)
 .debug_frame   0x000000000000365c       0x2c /usr/local/Cellar/arm-none-eabi-gcc/4.9-2015-q2-update/bin/../lib/gcc/arm-none-eabi/4.9.3/../../../../arm-none-eabi/lib/armv7e-m/libc_nano.a(lib_a-readr.o)
 .debug_frame   0x0000000000003688       0x5c /usr/local/Cellar/arm-none-eabi-gcc/4.9-2015-q2-update/bin/../lib/gcc/arm-none-eabi/4.9.3/../../../../arm-none-eabi/lib/armv7e-m/libc_nano.a(lib_a-reent.o)
 .debug_frame   0x00000000000036e4       0x2c /usr/local/Cellar/arm-none-eabi-gcc/4.9-2015-q2-update/bin/../lib/gcc/arm-none-eabi/4.9.3/../../../../arm-none-eabi/lib/armv7e-m/libc_nano.a(lib_a-fstatr.o)
 .debug_frame   0x0000000000003710       0x2c /usr/local/Cellar/arm-none-eabi-gcc/4.9-2015-q2-update/bin/../lib/gcc/arm-none-eabi/4.9.3/../../../../arm-none-eabi/lib/armv7e-m/libc_nano.a(lib_a-isattyr.o)
 .debug_frame   0x000000000000373c       0x74 ym/core-util/source/core-util.a(sbrk.cpp.o)
 .debug_frame   0x00000000000037b0       0x78 ym/ualloc/source/ualloc.a(malloc.c.o)
 .debug_frame   0x0000000000003828       0x38 ym/cmsis-core/source/cmsis-core.a(cmsis_nvic.c.o)
